; Listing generated by Microsoft (R) Optimizing Compiler Version 19.16.27031.1 

include listing.inc

INCLUDELIB OLDNAMES

	ORG $+48
?ps_cst_minus_inf@@3QBMB DD 0ff800000r		; -inf	; ps_cst_minus_inf
	DD	0ff800000r			; -inf
	DD	0ff800000r			; -inf
	DD	0ff800000r			; -inf
?ps_cst_plus_inf@@3QBMB DD 07f800000r		; inf	; ps_cst_plus_inf
	DD	07f800000r			; inf
	DD	07f800000r			; inf
	DD	07f800000r			; inf
PUBLIC	?_tri@?$ray_collider@$00$00$00$00@@QEAA_NPEAIAEAM11@Z ; ray_collider<1,1,1,1>::_tri
PUBLIC	?_tri@?$ray_collider@$00$00$00$0A@@@QEAA_NPEAIAEAM11@Z ; ray_collider<1,1,1,0>::_tri
PUBLIC	?_tri@?$ray_collider@$00$00$0A@$00@@QEAA_NPEAIAEAM11@Z ; ray_collider<1,1,0,1>::_tri
PUBLIC	?_tri@?$ray_collider@$00$00$0A@$0A@@@QEAA_NPEAIAEAM11@Z ; ray_collider<1,1,0,0>::_tri
PUBLIC	?_tri@?$ray_collider@$00$0A@$00$00@@QEAA_NPEAIAEAM11@Z ; ray_collider<1,0,1,1>::_tri
PUBLIC	?_tri@?$ray_collider@$00$0A@$00$0A@@@QEAA_NPEAIAEAM11@Z ; ray_collider<1,0,1,0>::_tri
PUBLIC	?_tri@?$ray_collider@$00$0A@$0A@$00@@QEAA_NPEAIAEAM11@Z ; ray_collider<1,0,0,1>::_tri
PUBLIC	?_tri@?$ray_collider@$00$0A@$0A@$0A@@@QEAA_NPEAIAEAM11@Z ; ray_collider<1,0,0,0>::_tri
PUBLIC	?_tri@?$ray_collider@$0A@$00$00$00@@QEAA_NPEAIAEAM11@Z ; ray_collider<0,1,1,1>::_tri
PUBLIC	?_tri@?$ray_collider@$0A@$00$00$0A@@@QEAA_NPEAIAEAM11@Z ; ray_collider<0,1,1,0>::_tri
PUBLIC	?_tri@?$ray_collider@$0A@$00$0A@$00@@QEAA_NPEAIAEAM11@Z ; ray_collider<0,1,0,1>::_tri
PUBLIC	?_tri@?$ray_collider@$0A@$00$0A@$0A@@@QEAA_NPEAIAEAM11@Z ; ray_collider<0,1,0,0>::_tri
PUBLIC	?_tri@?$ray_collider@$0A@$0A@$00$00@@QEAA_NPEAIAEAM11@Z ; ray_collider<0,0,1,1>::_tri
PUBLIC	?_tri@?$ray_collider@$0A@$0A@$00$0A@@@QEAA_NPEAIAEAM11@Z ; ray_collider<0,0,1,0>::_tri
PUBLIC	?_tri@?$ray_collider@$0A@$0A@$0A@$00@@QEAA_NPEAIAEAM11@Z ; ray_collider<0,0,0,1>::_tri
PUBLIC	?_tri@?$ray_collider@$0A@$0A@$0A@$0A@@@QEAA_NPEAIAEAM11@Z ; ray_collider<0,0,0,0>::_tri
PUBLIC	?_box_fpu@?$ray_collider@$00$00$00$00@@QEAAHAEBU?$_vector3@M@@0AEAU2@@Z ; ray_collider<1,1,1,1>::_box_fpu
PUBLIC	?_box_sse@?$ray_collider@$00$00$00$00@@QEAAHAEBU?$_vector3@M@@0AEAM@Z ; ray_collider<1,1,1,1>::_box_sse
PUBLIC	?_prim@?$ray_collider@$00$00$00$00@@QEAAXK@Z	; ray_collider<1,1,1,1>::_prim
PUBLIC	?_box_fpu@?$ray_collider@$00$00$00$0A@@@QEAAHAEBU?$_vector3@M@@0AEAU2@@Z ; ray_collider<1,1,1,0>::_box_fpu
PUBLIC	?_box_sse@?$ray_collider@$00$00$00$0A@@@QEAAHAEBU?$_vector3@M@@0AEAM@Z ; ray_collider<1,1,1,0>::_box_sse
PUBLIC	?_prim@?$ray_collider@$00$00$00$0A@@@QEAAXK@Z	; ray_collider<1,1,1,0>::_prim
PUBLIC	?_box_fpu@?$ray_collider@$00$00$0A@$00@@QEAAHAEBU?$_vector3@M@@0AEAU2@@Z ; ray_collider<1,1,0,1>::_box_fpu
PUBLIC	?_box_sse@?$ray_collider@$00$00$0A@$00@@QEAAHAEBU?$_vector3@M@@0AEAM@Z ; ray_collider<1,1,0,1>::_box_sse
PUBLIC	?_prim@?$ray_collider@$00$00$0A@$00@@QEAAXK@Z	; ray_collider<1,1,0,1>::_prim
PUBLIC	?_box_fpu@?$ray_collider@$00$00$0A@$0A@@@QEAAHAEBU?$_vector3@M@@0AEAU2@@Z ; ray_collider<1,1,0,0>::_box_fpu
PUBLIC	?_box_sse@?$ray_collider@$00$00$0A@$0A@@@QEAAHAEBU?$_vector3@M@@0AEAM@Z ; ray_collider<1,1,0,0>::_box_sse
PUBLIC	?_prim@?$ray_collider@$00$00$0A@$0A@@@QEAAXK@Z	; ray_collider<1,1,0,0>::_prim
PUBLIC	?_box_fpu@?$ray_collider@$00$0A@$00$00@@QEAAHAEBU?$_vector3@M@@0AEAU2@@Z ; ray_collider<1,0,1,1>::_box_fpu
PUBLIC	?_box_sse@?$ray_collider@$00$0A@$00$00@@QEAAHAEBU?$_vector3@M@@0AEAM@Z ; ray_collider<1,0,1,1>::_box_sse
PUBLIC	?_prim@?$ray_collider@$00$0A@$00$00@@QEAAXK@Z	; ray_collider<1,0,1,1>::_prim
PUBLIC	?_box_fpu@?$ray_collider@$00$0A@$00$0A@@@QEAAHAEBU?$_vector3@M@@0AEAU2@@Z ; ray_collider<1,0,1,0>::_box_fpu
PUBLIC	?_box_sse@?$ray_collider@$00$0A@$00$0A@@@QEAAHAEBU?$_vector3@M@@0AEAM@Z ; ray_collider<1,0,1,0>::_box_sse
PUBLIC	?_prim@?$ray_collider@$00$0A@$00$0A@@@QEAAXK@Z	; ray_collider<1,0,1,0>::_prim
PUBLIC	?_box_fpu@?$ray_collider@$00$0A@$0A@$00@@QEAAHAEBU?$_vector3@M@@0AEAU2@@Z ; ray_collider<1,0,0,1>::_box_fpu
PUBLIC	?_box_sse@?$ray_collider@$00$0A@$0A@$00@@QEAAHAEBU?$_vector3@M@@0AEAM@Z ; ray_collider<1,0,0,1>::_box_sse
PUBLIC	?_prim@?$ray_collider@$00$0A@$0A@$00@@QEAAXK@Z	; ray_collider<1,0,0,1>::_prim
PUBLIC	?_box_fpu@?$ray_collider@$00$0A@$0A@$0A@@@QEAAHAEBU?$_vector3@M@@0AEAU2@@Z ; ray_collider<1,0,0,0>::_box_fpu
PUBLIC	?_box_sse@?$ray_collider@$00$0A@$0A@$0A@@@QEAAHAEBU?$_vector3@M@@0AEAM@Z ; ray_collider<1,0,0,0>::_box_sse
PUBLIC	?_prim@?$ray_collider@$00$0A@$0A@$0A@@@QEAAXK@Z	; ray_collider<1,0,0,0>::_prim
PUBLIC	?_box_fpu@?$ray_collider@$0A@$00$00$00@@QEAAHAEBU?$_vector3@M@@0AEAU2@@Z ; ray_collider<0,1,1,1>::_box_fpu
PUBLIC	?_box_sse@?$ray_collider@$0A@$00$00$00@@QEAAHAEBU?$_vector3@M@@0AEAM@Z ; ray_collider<0,1,1,1>::_box_sse
PUBLIC	?_prim@?$ray_collider@$0A@$00$00$00@@QEAAXK@Z	; ray_collider<0,1,1,1>::_prim
PUBLIC	?_box_fpu@?$ray_collider@$0A@$00$00$0A@@@QEAAHAEBU?$_vector3@M@@0AEAU2@@Z ; ray_collider<0,1,1,0>::_box_fpu
PUBLIC	?_box_sse@?$ray_collider@$0A@$00$00$0A@@@QEAAHAEBU?$_vector3@M@@0AEAM@Z ; ray_collider<0,1,1,0>::_box_sse
PUBLIC	?_prim@?$ray_collider@$0A@$00$00$0A@@@QEAAXK@Z	; ray_collider<0,1,1,0>::_prim
PUBLIC	?_box_fpu@?$ray_collider@$0A@$00$0A@$00@@QEAAHAEBU?$_vector3@M@@0AEAU2@@Z ; ray_collider<0,1,0,1>::_box_fpu
PUBLIC	?_box_sse@?$ray_collider@$0A@$00$0A@$00@@QEAAHAEBU?$_vector3@M@@0AEAM@Z ; ray_collider<0,1,0,1>::_box_sse
PUBLIC	?_prim@?$ray_collider@$0A@$00$0A@$00@@QEAAXK@Z	; ray_collider<0,1,0,1>::_prim
PUBLIC	?_box_fpu@?$ray_collider@$0A@$00$0A@$0A@@@QEAAHAEBU?$_vector3@M@@0AEAU2@@Z ; ray_collider<0,1,0,0>::_box_fpu
PUBLIC	?_box_sse@?$ray_collider@$0A@$00$0A@$0A@@@QEAAHAEBU?$_vector3@M@@0AEAM@Z ; ray_collider<0,1,0,0>::_box_sse
PUBLIC	?_prim@?$ray_collider@$0A@$00$0A@$0A@@@QEAAXK@Z	; ray_collider<0,1,0,0>::_prim
PUBLIC	?_box_fpu@?$ray_collider@$0A@$0A@$00$00@@QEAAHAEBU?$_vector3@M@@0AEAU2@@Z ; ray_collider<0,0,1,1>::_box_fpu
PUBLIC	?_box_sse@?$ray_collider@$0A@$0A@$00$00@@QEAAHAEBU?$_vector3@M@@0AEAM@Z ; ray_collider<0,0,1,1>::_box_sse
PUBLIC	?_prim@?$ray_collider@$0A@$0A@$00$00@@QEAAXK@Z	; ray_collider<0,0,1,1>::_prim
PUBLIC	?_box_fpu@?$ray_collider@$0A@$0A@$00$0A@@@QEAAHAEBU?$_vector3@M@@0AEAU2@@Z ; ray_collider<0,0,1,0>::_box_fpu
PUBLIC	?_box_sse@?$ray_collider@$0A@$0A@$00$0A@@@QEAAHAEBU?$_vector3@M@@0AEAM@Z ; ray_collider<0,0,1,0>::_box_sse
PUBLIC	?_prim@?$ray_collider@$0A@$0A@$00$0A@@@QEAAXK@Z	; ray_collider<0,0,1,0>::_prim
PUBLIC	?_box_fpu@?$ray_collider@$0A@$0A@$0A@$00@@QEAAHAEBU?$_vector3@M@@0AEAU2@@Z ; ray_collider<0,0,0,1>::_box_fpu
PUBLIC	?_box_sse@?$ray_collider@$0A@$0A@$0A@$00@@QEAAHAEBU?$_vector3@M@@0AEAM@Z ; ray_collider<0,0,0,1>::_box_sse
PUBLIC	?_prim@?$ray_collider@$0A@$0A@$0A@$00@@QEAAXK@Z	; ray_collider<0,0,0,1>::_prim
PUBLIC	?_box_fpu@?$ray_collider@$0A@$0A@$0A@$0A@@@QEAAHAEBU?$_vector3@M@@0AEAU2@@Z ; ray_collider<0,0,0,0>::_box_fpu
PUBLIC	?_box_sse@?$ray_collider@$0A@$0A@$0A@$0A@@@QEAAHAEBU?$_vector3@M@@0AEAM@Z ; ray_collider<0,0,0,0>::_box_sse
PUBLIC	?_prim@?$ray_collider@$0A@$0A@$0A@$0A@@@QEAAXK@Z ; ray_collider<0,0,0,0>::_prim
PUBLIC	?_init@?$ray_collider@$00$00$00$00@@QEAAXPEAVCOLLIDER@CDB@@PEAU?$_vector3@M@@PEAVTRI@3@AEBU4@3M@Z ; ray_collider<1,1,1,1>::_init
PUBLIC	?_stab@?$ray_collider@$00$00$00$00@@QEAAXPEBVAABBNoLeafNode@Opcode@@@Z ; ray_collider<1,1,1,1>::_stab
PUBLIC	?_init@?$ray_collider@$00$00$00$0A@@@QEAAXPEAVCOLLIDER@CDB@@PEAU?$_vector3@M@@PEAVTRI@3@AEBU4@3M@Z ; ray_collider<1,1,1,0>::_init
PUBLIC	?_stab@?$ray_collider@$00$00$00$0A@@@QEAAXPEBVAABBNoLeafNode@Opcode@@@Z ; ray_collider<1,1,1,0>::_stab
PUBLIC	?_init@?$ray_collider@$00$00$0A@$00@@QEAAXPEAVCOLLIDER@CDB@@PEAU?$_vector3@M@@PEAVTRI@3@AEBU4@3M@Z ; ray_collider<1,1,0,1>::_init
PUBLIC	?_stab@?$ray_collider@$00$00$0A@$00@@QEAAXPEBVAABBNoLeafNode@Opcode@@@Z ; ray_collider<1,1,0,1>::_stab
PUBLIC	?_init@?$ray_collider@$00$00$0A@$0A@@@QEAAXPEAVCOLLIDER@CDB@@PEAU?$_vector3@M@@PEAVTRI@3@AEBU4@3M@Z ; ray_collider<1,1,0,0>::_init
PUBLIC	?_stab@?$ray_collider@$00$00$0A@$0A@@@QEAAXPEBVAABBNoLeafNode@Opcode@@@Z ; ray_collider<1,1,0,0>::_stab
PUBLIC	?_init@?$ray_collider@$00$0A@$00$00@@QEAAXPEAVCOLLIDER@CDB@@PEAU?$_vector3@M@@PEAVTRI@3@AEBU4@3M@Z ; ray_collider<1,0,1,1>::_init
PUBLIC	?_stab@?$ray_collider@$00$0A@$00$00@@QEAAXPEBVAABBNoLeafNode@Opcode@@@Z ; ray_collider<1,0,1,1>::_stab
PUBLIC	?_init@?$ray_collider@$00$0A@$00$0A@@@QEAAXPEAVCOLLIDER@CDB@@PEAU?$_vector3@M@@PEAVTRI@3@AEBU4@3M@Z ; ray_collider<1,0,1,0>::_init
PUBLIC	?_stab@?$ray_collider@$00$0A@$00$0A@@@QEAAXPEBVAABBNoLeafNode@Opcode@@@Z ; ray_collider<1,0,1,0>::_stab
PUBLIC	?_init@?$ray_collider@$00$0A@$0A@$00@@QEAAXPEAVCOLLIDER@CDB@@PEAU?$_vector3@M@@PEAVTRI@3@AEBU4@3M@Z ; ray_collider<1,0,0,1>::_init
PUBLIC	?_stab@?$ray_collider@$00$0A@$0A@$00@@QEAAXPEBVAABBNoLeafNode@Opcode@@@Z ; ray_collider<1,0,0,1>::_stab
PUBLIC	?_init@?$ray_collider@$00$0A@$0A@$0A@@@QEAAXPEAVCOLLIDER@CDB@@PEAU?$_vector3@M@@PEAVTRI@3@AEBU4@3M@Z ; ray_collider<1,0,0,0>::_init
PUBLIC	?_stab@?$ray_collider@$00$0A@$0A@$0A@@@QEAAXPEBVAABBNoLeafNode@Opcode@@@Z ; ray_collider<1,0,0,0>::_stab
PUBLIC	?_init@?$ray_collider@$0A@$00$00$00@@QEAAXPEAVCOLLIDER@CDB@@PEAU?$_vector3@M@@PEAVTRI@3@AEBU4@3M@Z ; ray_collider<0,1,1,1>::_init
PUBLIC	?_stab@?$ray_collider@$0A@$00$00$00@@QEAAXPEBVAABBNoLeafNode@Opcode@@@Z ; ray_collider<0,1,1,1>::_stab
PUBLIC	?_init@?$ray_collider@$0A@$00$00$0A@@@QEAAXPEAVCOLLIDER@CDB@@PEAU?$_vector3@M@@PEAVTRI@3@AEBU4@3M@Z ; ray_collider<0,1,1,0>::_init
PUBLIC	?_stab@?$ray_collider@$0A@$00$00$0A@@@QEAAXPEBVAABBNoLeafNode@Opcode@@@Z ; ray_collider<0,1,1,0>::_stab
PUBLIC	?_init@?$ray_collider@$0A@$00$0A@$00@@QEAAXPEAVCOLLIDER@CDB@@PEAU?$_vector3@M@@PEAVTRI@3@AEBU4@3M@Z ; ray_collider<0,1,0,1>::_init
PUBLIC	?_stab@?$ray_collider@$0A@$00$0A@$00@@QEAAXPEBVAABBNoLeafNode@Opcode@@@Z ; ray_collider<0,1,0,1>::_stab
PUBLIC	?_init@?$ray_collider@$0A@$00$0A@$0A@@@QEAAXPEAVCOLLIDER@CDB@@PEAU?$_vector3@M@@PEAVTRI@3@AEBU4@3M@Z ; ray_collider<0,1,0,0>::_init
PUBLIC	?_stab@?$ray_collider@$0A@$00$0A@$0A@@@QEAAXPEBVAABBNoLeafNode@Opcode@@@Z ; ray_collider<0,1,0,0>::_stab
PUBLIC	?_init@?$ray_collider@$0A@$0A@$00$00@@QEAAXPEAVCOLLIDER@CDB@@PEAU?$_vector3@M@@PEAVTRI@3@AEBU4@3M@Z ; ray_collider<0,0,1,1>::_init
PUBLIC	?_stab@?$ray_collider@$0A@$0A@$00$00@@QEAAXPEBVAABBNoLeafNode@Opcode@@@Z ; ray_collider<0,0,1,1>::_stab
PUBLIC	?_init@?$ray_collider@$0A@$0A@$00$0A@@@QEAAXPEAVCOLLIDER@CDB@@PEAU?$_vector3@M@@PEAVTRI@3@AEBU4@3M@Z ; ray_collider<0,0,1,0>::_init
PUBLIC	?_stab@?$ray_collider@$0A@$0A@$00$0A@@@QEAAXPEBVAABBNoLeafNode@Opcode@@@Z ; ray_collider<0,0,1,0>::_stab
PUBLIC	?_init@?$ray_collider@$0A@$0A@$0A@$00@@QEAAXPEAVCOLLIDER@CDB@@PEAU?$_vector3@M@@PEAVTRI@3@AEBU4@3M@Z ; ray_collider<0,0,0,1>::_init
PUBLIC	?_stab@?$ray_collider@$0A@$0A@$0A@$00@@QEAAXPEBVAABBNoLeafNode@Opcode@@@Z ; ray_collider<0,0,0,1>::_stab
PUBLIC	?_init@?$ray_collider@$0A@$0A@$0A@$0A@@@QEAAXPEAVCOLLIDER@CDB@@PEAU?$_vector3@M@@PEAVTRI@3@AEBU4@3M@Z ; ray_collider<0,0,0,0>::_init
PUBLIC	?_stab@?$ray_collider@$0A@$0A@$0A@$0A@@@QEAAXPEBVAABBNoLeafNode@Opcode@@@Z ; ray_collider<0,0,0,0>::_stab
PUBLIC	?ray_query@COLLIDER@CDB@@QEAAXPEBVMODEL@2@AEBU?$_vector3@M@@1M@Z ; CDB::COLLIDER::ray_query
;	COMDAT pdata
pdata	SEGMENT
$pdata$?_tri@?$ray_collider@$00$00$00$00@@QEAA_NPEAIAEAM11@Z DD imagerel $LN45@tri
	DD	imagerel $LN45@tri+623
	DD	imagerel $unwind$?_tri@?$ray_collider@$00$00$00$00@@QEAA_NPEAIAEAM11@Z
pdata	ENDS
;	COMDAT pdata
pdata	SEGMENT
$pdata$?_tri@?$ray_collider@$00$00$00$0A@@@QEAA_NPEAIAEAM11@Z DD imagerel $LN45@tri
	DD	imagerel $LN45@tri+623
	DD	imagerel $unwind$?_tri@?$ray_collider@$00$00$00$0A@@@QEAA_NPEAIAEAM11@Z
pdata	ENDS
;	COMDAT pdata
pdata	SEGMENT
$pdata$?_tri@?$ray_collider@$00$00$0A@$00@@QEAA_NPEAIAEAM11@Z DD imagerel $LN45@tri
	DD	imagerel $LN45@tri+623
	DD	imagerel $unwind$?_tri@?$ray_collider@$00$00$0A@$00@@QEAA_NPEAIAEAM11@Z
pdata	ENDS
;	COMDAT pdata
pdata	SEGMENT
$pdata$?_tri@?$ray_collider@$00$00$0A@$0A@@@QEAA_NPEAIAEAM11@Z DD imagerel $LN45@tri
	DD	imagerel $LN45@tri+623
	DD	imagerel $unwind$?_tri@?$ray_collider@$00$00$0A@$0A@@@QEAA_NPEAIAEAM11@Z
pdata	ENDS
;	COMDAT pdata
pdata	SEGMENT
$pdata$?_tri@?$ray_collider@$00$0A@$00$00@@QEAA_NPEAIAEAM11@Z DD imagerel $LN45@tri
	DD	imagerel $LN45@tri+622
	DD	imagerel $unwind$?_tri@?$ray_collider@$00$0A@$00$00@@QEAA_NPEAIAEAM11@Z
pdata	ENDS
;	COMDAT pdata
pdata	SEGMENT
$pdata$?_tri@?$ray_collider@$00$0A@$00$0A@@@QEAA_NPEAIAEAM11@Z DD imagerel $LN45@tri
	DD	imagerel $LN45@tri+622
	DD	imagerel $unwind$?_tri@?$ray_collider@$00$0A@$00$0A@@@QEAA_NPEAIAEAM11@Z
pdata	ENDS
;	COMDAT pdata
pdata	SEGMENT
$pdata$?_tri@?$ray_collider@$00$0A@$0A@$00@@QEAA_NPEAIAEAM11@Z DD imagerel $LN45@tri
	DD	imagerel $LN45@tri+622
	DD	imagerel $unwind$?_tri@?$ray_collider@$00$0A@$0A@$00@@QEAA_NPEAIAEAM11@Z
pdata	ENDS
;	COMDAT pdata
pdata	SEGMENT
$pdata$?_tri@?$ray_collider@$00$0A@$0A@$0A@@@QEAA_NPEAIAEAM11@Z DD imagerel $LN45@tri
	DD	imagerel $LN45@tri+622
	DD	imagerel $unwind$?_tri@?$ray_collider@$00$0A@$0A@$0A@@@QEAA_NPEAIAEAM11@Z
pdata	ENDS
;	COMDAT pdata
pdata	SEGMENT
$pdata$?_tri@?$ray_collider@$0A@$00$00$00@@QEAA_NPEAIAEAM11@Z DD imagerel $LN45@tri
	DD	imagerel $LN45@tri+623
	DD	imagerel $unwind$?_tri@?$ray_collider@$0A@$00$00$00@@QEAA_NPEAIAEAM11@Z
pdata	ENDS
;	COMDAT pdata
pdata	SEGMENT
$pdata$?_tri@?$ray_collider@$0A@$00$00$0A@@@QEAA_NPEAIAEAM11@Z DD imagerel $LN45@tri
	DD	imagerel $LN45@tri+623
	DD	imagerel $unwind$?_tri@?$ray_collider@$0A@$00$00$0A@@@QEAA_NPEAIAEAM11@Z
pdata	ENDS
;	COMDAT pdata
pdata	SEGMENT
$pdata$?_tri@?$ray_collider@$0A@$00$0A@$00@@QEAA_NPEAIAEAM11@Z DD imagerel $LN45@tri
	DD	imagerel $LN45@tri+623
	DD	imagerel $unwind$?_tri@?$ray_collider@$0A@$00$0A@$00@@QEAA_NPEAIAEAM11@Z
pdata	ENDS
;	COMDAT pdata
pdata	SEGMENT
$pdata$?_tri@?$ray_collider@$0A@$00$0A@$0A@@@QEAA_NPEAIAEAM11@Z DD imagerel $LN45@tri
	DD	imagerel $LN45@tri+623
	DD	imagerel $unwind$?_tri@?$ray_collider@$0A@$00$0A@$0A@@@QEAA_NPEAIAEAM11@Z
pdata	ENDS
;	COMDAT pdata
pdata	SEGMENT
$pdata$?_tri@?$ray_collider@$0A@$0A@$00$00@@QEAA_NPEAIAEAM11@Z DD imagerel $LN45@tri
	DD	imagerel $LN45@tri+622
	DD	imagerel $unwind$?_tri@?$ray_collider@$0A@$0A@$00$00@@QEAA_NPEAIAEAM11@Z
pdata	ENDS
;	COMDAT pdata
pdata	SEGMENT
$pdata$?_tri@?$ray_collider@$0A@$0A@$00$0A@@@QEAA_NPEAIAEAM11@Z DD imagerel $LN45@tri
	DD	imagerel $LN45@tri+622
	DD	imagerel $unwind$?_tri@?$ray_collider@$0A@$0A@$00$0A@@@QEAA_NPEAIAEAM11@Z
pdata	ENDS
;	COMDAT pdata
pdata	SEGMENT
$pdata$?_tri@?$ray_collider@$0A@$0A@$0A@$00@@QEAA_NPEAIAEAM11@Z DD imagerel $LN45@tri
	DD	imagerel $LN45@tri+622
	DD	imagerel $unwind$?_tri@?$ray_collider@$0A@$0A@$0A@$00@@QEAA_NPEAIAEAM11@Z
pdata	ENDS
;	COMDAT pdata
pdata	SEGMENT
$pdata$?_tri@?$ray_collider@$0A@$0A@$0A@$0A@@@QEAA_NPEAIAEAM11@Z DD imagerel $LN45@tri
	DD	imagerel $LN45@tri+622
	DD	imagerel $unwind$?_tri@?$ray_collider@$0A@$0A@$0A@$0A@@@QEAA_NPEAIAEAM11@Z
pdata	ENDS
;	COMDAT pdata
pdata	SEGMENT
$pdata$?_box_fpu@?$ray_collider@$00$00$00$00@@QEAAHAEBU?$_vector3@M@@0AEAU2@@Z DD imagerel $LN279@box_fpu
	DD	imagerel $LN279@box_fpu+658
	DD	imagerel $unwind$?_box_fpu@?$ray_collider@$00$00$00$00@@QEAAHAEBU?$_vector3@M@@0AEAU2@@Z
pdata	ENDS
;	COMDAT pdata
pdata	SEGMENT
$pdata$?_box_sse@?$ray_collider@$00$00$00$00@@QEAAHAEBU?$_vector3@M@@0AEAM@Z DD imagerel $LN6@box_sse
	DD	imagerel $LN6@box_sse+172
	DD	imagerel $unwind$?_box_sse@?$ray_collider@$00$00$00$00@@QEAAHAEBU?$_vector3@M@@0AEAM@Z
pdata	ENDS
;	COMDAT pdata
pdata	SEGMENT
$pdata$?_prim@?$ray_collider@$00$00$00$00@@QEAAXK@Z DD imagerel $LN99@prim
	DD	imagerel $LN99@prim+1042
	DD	imagerel $unwind$?_prim@?$ray_collider@$00$00$00$00@@QEAAXK@Z
pdata	ENDS
;	COMDAT pdata
pdata	SEGMENT
$pdata$?_box_fpu@?$ray_collider@$00$00$00$0A@@@QEAAHAEBU?$_vector3@M@@0AEAU2@@Z DD imagerel $LN279@box_fpu
	DD	imagerel $LN279@box_fpu+658
	DD	imagerel $unwind$?_box_fpu@?$ray_collider@$00$00$00$0A@@@QEAAHAEBU?$_vector3@M@@0AEAU2@@Z
pdata	ENDS
;	COMDAT pdata
pdata	SEGMENT
$pdata$?_box_sse@?$ray_collider@$00$00$00$0A@@@QEAAHAEBU?$_vector3@M@@0AEAM@Z DD imagerel $LN6@box_sse
	DD	imagerel $LN6@box_sse+172
	DD	imagerel $unwind$?_box_sse@?$ray_collider@$00$00$00$0A@@@QEAAHAEBU?$_vector3@M@@0AEAM@Z
pdata	ENDS
;	COMDAT pdata
pdata	SEGMENT
$pdata$?_prim@?$ray_collider@$00$00$00$0A@@@QEAAXK@Z DD imagerel $LN98@prim
	DD	imagerel $LN98@prim+832
	DD	imagerel $unwind$?_prim@?$ray_collider@$00$00$00$0A@@@QEAAXK@Z
pdata	ENDS
;	COMDAT pdata
pdata	SEGMENT
$pdata$?_box_fpu@?$ray_collider@$00$00$0A@$00@@QEAAHAEBU?$_vector3@M@@0AEAU2@@Z DD imagerel $LN279@box_fpu
	DD	imagerel $LN279@box_fpu+658
	DD	imagerel $unwind$?_box_fpu@?$ray_collider@$00$00$0A@$00@@QEAAHAEBU?$_vector3@M@@0AEAU2@@Z
pdata	ENDS
;	COMDAT pdata
pdata	SEGMENT
$pdata$?_box_sse@?$ray_collider@$00$00$0A@$00@@QEAAHAEBU?$_vector3@M@@0AEAM@Z DD imagerel $LN6@box_sse
	DD	imagerel $LN6@box_sse+172
	DD	imagerel $unwind$?_box_sse@?$ray_collider@$00$00$0A@$00@@QEAAHAEBU?$_vector3@M@@0AEAM@Z
pdata	ENDS
;	COMDAT pdata
pdata	SEGMENT
$pdata$?_prim@?$ray_collider@$00$00$0A@$00@@QEAAXK@Z DD imagerel $LN99@prim
	DD	imagerel $LN99@prim+1042
	DD	imagerel $unwind$?_prim@?$ray_collider@$00$00$0A@$00@@QEAAXK@Z
pdata	ENDS
;	COMDAT pdata
pdata	SEGMENT
$pdata$?_box_fpu@?$ray_collider@$00$00$0A@$0A@@@QEAAHAEBU?$_vector3@M@@0AEAU2@@Z DD imagerel $LN279@box_fpu
	DD	imagerel $LN279@box_fpu+658
	DD	imagerel $unwind$?_box_fpu@?$ray_collider@$00$00$0A@$0A@@@QEAAHAEBU?$_vector3@M@@0AEAU2@@Z
pdata	ENDS
;	COMDAT pdata
pdata	SEGMENT
$pdata$?_box_sse@?$ray_collider@$00$00$0A@$0A@@@QEAAHAEBU?$_vector3@M@@0AEAM@Z DD imagerel $LN6@box_sse
	DD	imagerel $LN6@box_sse+172
	DD	imagerel $unwind$?_box_sse@?$ray_collider@$00$00$0A@$0A@@@QEAAHAEBU?$_vector3@M@@0AEAM@Z
pdata	ENDS
;	COMDAT pdata
pdata	SEGMENT
$pdata$?_prim@?$ray_collider@$00$00$0A@$0A@@@QEAAXK@Z DD imagerel $LN98@prim
	DD	imagerel $LN98@prim+832
	DD	imagerel $unwind$?_prim@?$ray_collider@$00$00$0A@$0A@@@QEAAXK@Z
pdata	ENDS
;	COMDAT pdata
pdata	SEGMENT
$pdata$?_box_fpu@?$ray_collider@$00$0A@$00$00@@QEAAHAEBU?$_vector3@M@@0AEAU2@@Z DD imagerel $LN279@box_fpu
	DD	imagerel $LN279@box_fpu+658
	DD	imagerel $unwind$?_box_fpu@?$ray_collider@$00$0A@$00$00@@QEAAHAEBU?$_vector3@M@@0AEAU2@@Z
pdata	ENDS
;	COMDAT pdata
pdata	SEGMENT
$pdata$?_box_sse@?$ray_collider@$00$0A@$00$00@@QEAAHAEBU?$_vector3@M@@0AEAM@Z DD imagerel $LN6@box_sse
	DD	imagerel $LN6@box_sse+172
	DD	imagerel $unwind$?_box_sse@?$ray_collider@$00$0A@$00$00@@QEAAHAEBU?$_vector3@M@@0AEAM@Z
pdata	ENDS
;	COMDAT pdata
pdata	SEGMENT
$pdata$?_prim@?$ray_collider@$00$0A@$00$00@@QEAAXK@Z DD imagerel $LN100@prim
	DD	imagerel $LN100@prim+1068
	DD	imagerel $unwind$?_prim@?$ray_collider@$00$0A@$00$00@@QEAAXK@Z
pdata	ENDS
;	COMDAT pdata
pdata	SEGMENT
$pdata$?_box_fpu@?$ray_collider@$00$0A@$00$0A@@@QEAAHAEBU?$_vector3@M@@0AEAU2@@Z DD imagerel $LN279@box_fpu
	DD	imagerel $LN279@box_fpu+658
	DD	imagerel $unwind$?_box_fpu@?$ray_collider@$00$0A@$00$0A@@@QEAAHAEBU?$_vector3@M@@0AEAU2@@Z
pdata	ENDS
;	COMDAT pdata
pdata	SEGMENT
$pdata$?_box_sse@?$ray_collider@$00$0A@$00$0A@@@QEAAHAEBU?$_vector3@M@@0AEAM@Z DD imagerel $LN6@box_sse
	DD	imagerel $LN6@box_sse+172
	DD	imagerel $unwind$?_box_sse@?$ray_collider@$00$0A@$00$0A@@@QEAAHAEBU?$_vector3@M@@0AEAM@Z
pdata	ENDS
;	COMDAT pdata
pdata	SEGMENT
$pdata$?_prim@?$ray_collider@$00$0A@$00$0A@@@QEAAXK@Z DD imagerel $LN98@prim
	DD	imagerel $LN98@prim+852
	DD	imagerel $unwind$?_prim@?$ray_collider@$00$0A@$00$0A@@@QEAAXK@Z
pdata	ENDS
;	COMDAT pdata
pdata	SEGMENT
$pdata$?_box_fpu@?$ray_collider@$00$0A@$0A@$00@@QEAAHAEBU?$_vector3@M@@0AEAU2@@Z DD imagerel $LN279@box_fpu
	DD	imagerel $LN279@box_fpu+658
	DD	imagerel $unwind$?_box_fpu@?$ray_collider@$00$0A@$0A@$00@@QEAAHAEBU?$_vector3@M@@0AEAU2@@Z
pdata	ENDS
;	COMDAT pdata
pdata	SEGMENT
$pdata$?_box_sse@?$ray_collider@$00$0A@$0A@$00@@QEAAHAEBU?$_vector3@M@@0AEAM@Z DD imagerel $LN6@box_sse
	DD	imagerel $LN6@box_sse+172
	DD	imagerel $unwind$?_box_sse@?$ray_collider@$00$0A@$0A@$00@@QEAAHAEBU?$_vector3@M@@0AEAM@Z
pdata	ENDS
;	COMDAT pdata
pdata	SEGMENT
$pdata$?_prim@?$ray_collider@$00$0A@$0A@$00@@QEAAXK@Z DD imagerel $LN100@prim
	DD	imagerel $LN100@prim+1068
	DD	imagerel $unwind$?_prim@?$ray_collider@$00$0A@$0A@$00@@QEAAXK@Z
pdata	ENDS
;	COMDAT pdata
pdata	SEGMENT
$pdata$?_box_fpu@?$ray_collider@$00$0A@$0A@$0A@@@QEAAHAEBU?$_vector3@M@@0AEAU2@@Z DD imagerel $LN279@box_fpu
	DD	imagerel $LN279@box_fpu+658
	DD	imagerel $unwind$?_box_fpu@?$ray_collider@$00$0A@$0A@$0A@@@QEAAHAEBU?$_vector3@M@@0AEAU2@@Z
pdata	ENDS
;	COMDAT pdata
pdata	SEGMENT
$pdata$?_box_sse@?$ray_collider@$00$0A@$0A@$0A@@@QEAAHAEBU?$_vector3@M@@0AEAM@Z DD imagerel $LN6@box_sse
	DD	imagerel $LN6@box_sse+172
	DD	imagerel $unwind$?_box_sse@?$ray_collider@$00$0A@$0A@$0A@@@QEAAHAEBU?$_vector3@M@@0AEAM@Z
pdata	ENDS
;	COMDAT pdata
pdata	SEGMENT
$pdata$?_prim@?$ray_collider@$00$0A@$0A@$0A@@@QEAAXK@Z DD imagerel $LN98@prim
	DD	imagerel $LN98@prim+852
	DD	imagerel $unwind$?_prim@?$ray_collider@$00$0A@$0A@$0A@@@QEAAXK@Z
pdata	ENDS
;	COMDAT pdata
pdata	SEGMENT
$pdata$?_box_fpu@?$ray_collider@$0A@$00$00$00@@QEAAHAEBU?$_vector3@M@@0AEAU2@@Z DD imagerel $LN279@box_fpu
	DD	imagerel $LN279@box_fpu+658
	DD	imagerel $unwind$?_box_fpu@?$ray_collider@$0A@$00$00$00@@QEAAHAEBU?$_vector3@M@@0AEAU2@@Z
pdata	ENDS
;	COMDAT pdata
pdata	SEGMENT
$pdata$?_box_sse@?$ray_collider@$0A@$00$00$00@@QEAAHAEBU?$_vector3@M@@0AEAM@Z DD imagerel $LN6@box_sse
	DD	imagerel $LN6@box_sse+172
	DD	imagerel $unwind$?_box_sse@?$ray_collider@$0A@$00$00$00@@QEAAHAEBU?$_vector3@M@@0AEAM@Z
pdata	ENDS
;	COMDAT pdata
pdata	SEGMENT
$pdata$?_prim@?$ray_collider@$0A@$00$00$00@@QEAAXK@Z DD imagerel $LN99@prim
	DD	imagerel $LN99@prim+1042
	DD	imagerel $unwind$?_prim@?$ray_collider@$0A@$00$00$00@@QEAAXK@Z
pdata	ENDS
;	COMDAT pdata
pdata	SEGMENT
$pdata$?_box_fpu@?$ray_collider@$0A@$00$00$0A@@@QEAAHAEBU?$_vector3@M@@0AEAU2@@Z DD imagerel $LN279@box_fpu
	DD	imagerel $LN279@box_fpu+658
	DD	imagerel $unwind$?_box_fpu@?$ray_collider@$0A@$00$00$0A@@@QEAAHAEBU?$_vector3@M@@0AEAU2@@Z
pdata	ENDS
;	COMDAT pdata
pdata	SEGMENT
$pdata$?_box_sse@?$ray_collider@$0A@$00$00$0A@@@QEAAHAEBU?$_vector3@M@@0AEAM@Z DD imagerel $LN6@box_sse
	DD	imagerel $LN6@box_sse+172
	DD	imagerel $unwind$?_box_sse@?$ray_collider@$0A@$00$00$0A@@@QEAAHAEBU?$_vector3@M@@0AEAM@Z
pdata	ENDS
;	COMDAT pdata
pdata	SEGMENT
$pdata$?_prim@?$ray_collider@$0A@$00$00$0A@@@QEAAXK@Z DD imagerel $LN98@prim
	DD	imagerel $LN98@prim+832
	DD	imagerel $unwind$?_prim@?$ray_collider@$0A@$00$00$0A@@@QEAAXK@Z
pdata	ENDS
;	COMDAT pdata
pdata	SEGMENT
$pdata$?_box_fpu@?$ray_collider@$0A@$00$0A@$00@@QEAAHAEBU?$_vector3@M@@0AEAU2@@Z DD imagerel $LN279@box_fpu
	DD	imagerel $LN279@box_fpu+658
	DD	imagerel $unwind$?_box_fpu@?$ray_collider@$0A@$00$0A@$00@@QEAAHAEBU?$_vector3@M@@0AEAU2@@Z
pdata	ENDS
;	COMDAT pdata
pdata	SEGMENT
$pdata$?_box_sse@?$ray_collider@$0A@$00$0A@$00@@QEAAHAEBU?$_vector3@M@@0AEAM@Z DD imagerel $LN6@box_sse
	DD	imagerel $LN6@box_sse+172
	DD	imagerel $unwind$?_box_sse@?$ray_collider@$0A@$00$0A@$00@@QEAAHAEBU?$_vector3@M@@0AEAM@Z
pdata	ENDS
;	COMDAT pdata
pdata	SEGMENT
$pdata$?_prim@?$ray_collider@$0A@$00$0A@$00@@QEAAXK@Z DD imagerel $LN99@prim
	DD	imagerel $LN99@prim+1042
	DD	imagerel $unwind$?_prim@?$ray_collider@$0A@$00$0A@$00@@QEAAXK@Z
pdata	ENDS
;	COMDAT pdata
pdata	SEGMENT
$pdata$?_box_fpu@?$ray_collider@$0A@$00$0A@$0A@@@QEAAHAEBU?$_vector3@M@@0AEAU2@@Z DD imagerel $LN279@box_fpu
	DD	imagerel $LN279@box_fpu+658
	DD	imagerel $unwind$?_box_fpu@?$ray_collider@$0A@$00$0A@$0A@@@QEAAHAEBU?$_vector3@M@@0AEAU2@@Z
pdata	ENDS
;	COMDAT pdata
pdata	SEGMENT
$pdata$?_box_sse@?$ray_collider@$0A@$00$0A@$0A@@@QEAAHAEBU?$_vector3@M@@0AEAM@Z DD imagerel $LN6@box_sse
	DD	imagerel $LN6@box_sse+172
	DD	imagerel $unwind$?_box_sse@?$ray_collider@$0A@$00$0A@$0A@@@QEAAHAEBU?$_vector3@M@@0AEAM@Z
pdata	ENDS
;	COMDAT pdata
pdata	SEGMENT
$pdata$?_prim@?$ray_collider@$0A@$00$0A@$0A@@@QEAAXK@Z DD imagerel $LN98@prim
	DD	imagerel $LN98@prim+832
	DD	imagerel $unwind$?_prim@?$ray_collider@$0A@$00$0A@$0A@@@QEAAXK@Z
pdata	ENDS
;	COMDAT pdata
pdata	SEGMENT
$pdata$?_box_fpu@?$ray_collider@$0A@$0A@$00$00@@QEAAHAEBU?$_vector3@M@@0AEAU2@@Z DD imagerel $LN279@box_fpu
	DD	imagerel $LN279@box_fpu+658
	DD	imagerel $unwind$?_box_fpu@?$ray_collider@$0A@$0A@$00$00@@QEAAHAEBU?$_vector3@M@@0AEAU2@@Z
pdata	ENDS
;	COMDAT pdata
pdata	SEGMENT
$pdata$?_box_sse@?$ray_collider@$0A@$0A@$00$00@@QEAAHAEBU?$_vector3@M@@0AEAM@Z DD imagerel $LN6@box_sse
	DD	imagerel $LN6@box_sse+172
	DD	imagerel $unwind$?_box_sse@?$ray_collider@$0A@$0A@$00$00@@QEAAHAEBU?$_vector3@M@@0AEAM@Z
pdata	ENDS
;	COMDAT pdata
pdata	SEGMENT
$pdata$?_prim@?$ray_collider@$0A@$0A@$00$00@@QEAAXK@Z DD imagerel $LN100@prim
	DD	imagerel $LN100@prim+1068
	DD	imagerel $unwind$?_prim@?$ray_collider@$0A@$0A@$00$00@@QEAAXK@Z
pdata	ENDS
;	COMDAT pdata
pdata	SEGMENT
$pdata$?_box_fpu@?$ray_collider@$0A@$0A@$00$0A@@@QEAAHAEBU?$_vector3@M@@0AEAU2@@Z DD imagerel $LN279@box_fpu
	DD	imagerel $LN279@box_fpu+658
	DD	imagerel $unwind$?_box_fpu@?$ray_collider@$0A@$0A@$00$0A@@@QEAAHAEBU?$_vector3@M@@0AEAU2@@Z
pdata	ENDS
;	COMDAT pdata
pdata	SEGMENT
$pdata$?_box_sse@?$ray_collider@$0A@$0A@$00$0A@@@QEAAHAEBU?$_vector3@M@@0AEAM@Z DD imagerel $LN6@box_sse
	DD	imagerel $LN6@box_sse+172
	DD	imagerel $unwind$?_box_sse@?$ray_collider@$0A@$0A@$00$0A@@@QEAAHAEBU?$_vector3@M@@0AEAM@Z
pdata	ENDS
;	COMDAT pdata
pdata	SEGMENT
$pdata$?_prim@?$ray_collider@$0A@$0A@$00$0A@@@QEAAXK@Z DD imagerel $LN98@prim
	DD	imagerel $LN98@prim+852
	DD	imagerel $unwind$?_prim@?$ray_collider@$0A@$0A@$00$0A@@@QEAAXK@Z
pdata	ENDS
;	COMDAT pdata
pdata	SEGMENT
$pdata$?_box_fpu@?$ray_collider@$0A@$0A@$0A@$00@@QEAAHAEBU?$_vector3@M@@0AEAU2@@Z DD imagerel $LN279@box_fpu
	DD	imagerel $LN279@box_fpu+658
	DD	imagerel $unwind$?_box_fpu@?$ray_collider@$0A@$0A@$0A@$00@@QEAAHAEBU?$_vector3@M@@0AEAU2@@Z
pdata	ENDS
;	COMDAT pdata
pdata	SEGMENT
$pdata$?_box_sse@?$ray_collider@$0A@$0A@$0A@$00@@QEAAHAEBU?$_vector3@M@@0AEAM@Z DD imagerel $LN6@box_sse
	DD	imagerel $LN6@box_sse+172
	DD	imagerel $unwind$?_box_sse@?$ray_collider@$0A@$0A@$0A@$00@@QEAAHAEBU?$_vector3@M@@0AEAM@Z
pdata	ENDS
;	COMDAT pdata
pdata	SEGMENT
$pdata$?_prim@?$ray_collider@$0A@$0A@$0A@$00@@QEAAXK@Z DD imagerel $LN100@prim
	DD	imagerel $LN100@prim+1068
	DD	imagerel $unwind$?_prim@?$ray_collider@$0A@$0A@$0A@$00@@QEAAXK@Z
pdata	ENDS
;	COMDAT pdata
pdata	SEGMENT
$pdata$?_box_fpu@?$ray_collider@$0A@$0A@$0A@$0A@@@QEAAHAEBU?$_vector3@M@@0AEAU2@@Z DD imagerel $LN279@box_fpu
	DD	imagerel $LN279@box_fpu+658
	DD	imagerel $unwind$?_box_fpu@?$ray_collider@$0A@$0A@$0A@$0A@@@QEAAHAEBU?$_vector3@M@@0AEAU2@@Z
pdata	ENDS
;	COMDAT pdata
pdata	SEGMENT
$pdata$?_box_sse@?$ray_collider@$0A@$0A@$0A@$0A@@@QEAAHAEBU?$_vector3@M@@0AEAM@Z DD imagerel $LN6@box_sse
	DD	imagerel $LN6@box_sse+172
	DD	imagerel $unwind$?_box_sse@?$ray_collider@$0A@$0A@$0A@$0A@@@QEAAHAEBU?$_vector3@M@@0AEAM@Z
pdata	ENDS
;	COMDAT pdata
pdata	SEGMENT
$pdata$?_prim@?$ray_collider@$0A@$0A@$0A@$0A@@@QEAAXK@Z DD imagerel $LN98@prim
	DD	imagerel $LN98@prim+852
	DD	imagerel $unwind$?_prim@?$ray_collider@$0A@$0A@$0A@$0A@@@QEAAXK@Z
pdata	ENDS
;	COMDAT pdata
pdata	SEGMENT
$pdata$?_stab@?$ray_collider@$00$00$00$00@@QEAAXPEBVAABBNoLeafNode@Opcode@@@Z DD imagerel $LN333@stab
	DD	imagerel $LN333@stab+213
	DD	imagerel $unwind$?_stab@?$ray_collider@$00$00$00$00@@QEAAXPEBVAABBNoLeafNode@Opcode@@@Z
pdata	ENDS
;	COMDAT pdata
pdata	SEGMENT
$pdata$0$?_stab@?$ray_collider@$00$00$00$00@@QEAAXPEBVAABBNoLeafNode@Opcode@@@Z DD imagerel $LN333@stab+213
	DD	imagerel $LN333@stab+528
	DD	imagerel $chain$0$?_stab@?$ray_collider@$00$00$00$00@@QEAAXPEBVAABBNoLeafNode@Opcode@@@Z
pdata	ENDS
;	COMDAT pdata
pdata	SEGMENT
$pdata$1$?_stab@?$ray_collider@$00$00$00$00@@QEAAXPEBVAABBNoLeafNode@Opcode@@@Z DD imagerel $LN333@stab+528
	DD	imagerel $LN333@stab+562
	DD	imagerel $chain$1$?_stab@?$ray_collider@$00$00$00$00@@QEAAXPEBVAABBNoLeafNode@Opcode@@@Z
pdata	ENDS
;	COMDAT pdata
pdata	SEGMENT
$pdata$?_stab@?$ray_collider@$00$00$00$0A@@@QEAAXPEBVAABBNoLeafNode@Opcode@@@Z DD imagerel $LN333@stab
	DD	imagerel $LN333@stab+213
	DD	imagerel $unwind$?_stab@?$ray_collider@$00$00$00$0A@@@QEAAXPEBVAABBNoLeafNode@Opcode@@@Z
pdata	ENDS
;	COMDAT pdata
pdata	SEGMENT
$pdata$0$?_stab@?$ray_collider@$00$00$00$0A@@@QEAAXPEBVAABBNoLeafNode@Opcode@@@Z DD imagerel $LN333@stab+213
	DD	imagerel $LN333@stab+528
	DD	imagerel $chain$0$?_stab@?$ray_collider@$00$00$00$0A@@@QEAAXPEBVAABBNoLeafNode@Opcode@@@Z
pdata	ENDS
;	COMDAT pdata
pdata	SEGMENT
$pdata$1$?_stab@?$ray_collider@$00$00$00$0A@@@QEAAXPEBVAABBNoLeafNode@Opcode@@@Z DD imagerel $LN333@stab+528
	DD	imagerel $LN333@stab+562
	DD	imagerel $chain$1$?_stab@?$ray_collider@$00$00$00$0A@@@QEAAXPEBVAABBNoLeafNode@Opcode@@@Z
pdata	ENDS
;	COMDAT pdata
pdata	SEGMENT
$pdata$?_stab@?$ray_collider@$00$00$0A@$00@@QEAAXPEBVAABBNoLeafNode@Opcode@@@Z DD imagerel $LN315@stab
	DD	imagerel $LN315@stab+502
	DD	imagerel $unwind$?_stab@?$ray_collider@$00$00$0A@$00@@QEAAXPEBVAABBNoLeafNode@Opcode@@@Z
pdata	ENDS
;	COMDAT pdata
pdata	SEGMENT
$pdata$?_stab@?$ray_collider@$00$00$0A@$0A@@@QEAAXPEBVAABBNoLeafNode@Opcode@@@Z DD imagerel $LN315@stab
	DD	imagerel $LN315@stab+502
	DD	imagerel $unwind$?_stab@?$ray_collider@$00$00$0A@$0A@@@QEAAXPEBVAABBNoLeafNode@Opcode@@@Z
pdata	ENDS
;	COMDAT pdata
pdata	SEGMENT
$pdata$?_stab@?$ray_collider@$00$0A@$00$00@@QEAAXPEBVAABBNoLeafNode@Opcode@@@Z DD imagerel $LN333@stab
	DD	imagerel $LN333@stab+213
	DD	imagerel $unwind$?_stab@?$ray_collider@$00$0A@$00$00@@QEAAXPEBVAABBNoLeafNode@Opcode@@@Z
pdata	ENDS
;	COMDAT pdata
pdata	SEGMENT
$pdata$0$?_stab@?$ray_collider@$00$0A@$00$00@@QEAAXPEBVAABBNoLeafNode@Opcode@@@Z DD imagerel $LN333@stab+213
	DD	imagerel $LN333@stab+528
	DD	imagerel $chain$0$?_stab@?$ray_collider@$00$0A@$00$00@@QEAAXPEBVAABBNoLeafNode@Opcode@@@Z
pdata	ENDS
;	COMDAT pdata
pdata	SEGMENT
$pdata$1$?_stab@?$ray_collider@$00$0A@$00$00@@QEAAXPEBVAABBNoLeafNode@Opcode@@@Z DD imagerel $LN333@stab+528
	DD	imagerel $LN333@stab+562
	DD	imagerel $chain$1$?_stab@?$ray_collider@$00$0A@$00$00@@QEAAXPEBVAABBNoLeafNode@Opcode@@@Z
pdata	ENDS
;	COMDAT pdata
pdata	SEGMENT
$pdata$?_stab@?$ray_collider@$00$0A@$00$0A@@@QEAAXPEBVAABBNoLeafNode@Opcode@@@Z DD imagerel $LN333@stab
	DD	imagerel $LN333@stab+213
	DD	imagerel $unwind$?_stab@?$ray_collider@$00$0A@$00$0A@@@QEAAXPEBVAABBNoLeafNode@Opcode@@@Z
pdata	ENDS
;	COMDAT pdata
pdata	SEGMENT
$pdata$0$?_stab@?$ray_collider@$00$0A@$00$0A@@@QEAAXPEBVAABBNoLeafNode@Opcode@@@Z DD imagerel $LN333@stab+213
	DD	imagerel $LN333@stab+528
	DD	imagerel $chain$0$?_stab@?$ray_collider@$00$0A@$00$0A@@@QEAAXPEBVAABBNoLeafNode@Opcode@@@Z
pdata	ENDS
;	COMDAT pdata
pdata	SEGMENT
$pdata$1$?_stab@?$ray_collider@$00$0A@$00$0A@@@QEAAXPEBVAABBNoLeafNode@Opcode@@@Z DD imagerel $LN333@stab+528
	DD	imagerel $LN333@stab+562
	DD	imagerel $chain$1$?_stab@?$ray_collider@$00$0A@$00$0A@@@QEAAXPEBVAABBNoLeafNode@Opcode@@@Z
pdata	ENDS
;	COMDAT pdata
pdata	SEGMENT
$pdata$?_stab@?$ray_collider@$00$0A@$0A@$00@@QEAAXPEBVAABBNoLeafNode@Opcode@@@Z DD imagerel $LN315@stab
	DD	imagerel $LN315@stab+502
	DD	imagerel $unwind$?_stab@?$ray_collider@$00$0A@$0A@$00@@QEAAXPEBVAABBNoLeafNode@Opcode@@@Z
pdata	ENDS
;	COMDAT pdata
pdata	SEGMENT
$pdata$?_stab@?$ray_collider@$00$0A@$0A@$0A@@@QEAAXPEBVAABBNoLeafNode@Opcode@@@Z DD imagerel $LN315@stab
	DD	imagerel $LN315@stab+502
	DD	imagerel $unwind$?_stab@?$ray_collider@$00$0A@$0A@$0A@@@QEAAXPEBVAABBNoLeafNode@Opcode@@@Z
pdata	ENDS
;	COMDAT pdata
pdata	SEGMENT
$pdata$?_stab@?$ray_collider@$0A@$00$00$00@@QEAAXPEBVAABBNoLeafNode@Opcode@@@Z DD imagerel $LN339@stab
	DD	imagerel $LN339@stab+936
	DD	imagerel $unwind$?_stab@?$ray_collider@$0A@$00$00$00@@QEAAXPEBVAABBNoLeafNode@Opcode@@@Z
pdata	ENDS
;	COMDAT pdata
pdata	SEGMENT
$pdata$?_stab@?$ray_collider@$0A@$00$00$0A@@@QEAAXPEBVAABBNoLeafNode@Opcode@@@Z DD imagerel $LN339@stab
	DD	imagerel $LN339@stab+936
	DD	imagerel $unwind$?_stab@?$ray_collider@$0A@$00$00$0A@@@QEAAXPEBVAABBNoLeafNode@Opcode@@@Z
pdata	ENDS
;	COMDAT pdata
pdata	SEGMENT
$pdata$?_stab@?$ray_collider@$0A@$00$0A@$00@@QEAAXPEBVAABBNoLeafNode@Opcode@@@Z DD imagerel $LN322@stab
	DD	imagerel $LN322@stab+870
	DD	imagerel $unwind$?_stab@?$ray_collider@$0A@$00$0A@$00@@QEAAXPEBVAABBNoLeafNode@Opcode@@@Z
pdata	ENDS
;	COMDAT pdata
pdata	SEGMENT
$pdata$?_stab@?$ray_collider@$0A@$00$0A@$0A@@@QEAAXPEBVAABBNoLeafNode@Opcode@@@Z DD imagerel $LN322@stab
	DD	imagerel $LN322@stab+870
	DD	imagerel $unwind$?_stab@?$ray_collider@$0A@$00$0A@$0A@@@QEAAXPEBVAABBNoLeafNode@Opcode@@@Z
pdata	ENDS
;	COMDAT pdata
pdata	SEGMENT
$pdata$?_stab@?$ray_collider@$0A@$0A@$00$00@@QEAAXPEBVAABBNoLeafNode@Opcode@@@Z DD imagerel $LN339@stab
	DD	imagerel $LN339@stab+936
	DD	imagerel $unwind$?_stab@?$ray_collider@$0A@$0A@$00$00@@QEAAXPEBVAABBNoLeafNode@Opcode@@@Z
pdata	ENDS
;	COMDAT pdata
pdata	SEGMENT
$pdata$?_stab@?$ray_collider@$0A@$0A@$00$0A@@@QEAAXPEBVAABBNoLeafNode@Opcode@@@Z DD imagerel $LN339@stab
	DD	imagerel $LN339@stab+936
	DD	imagerel $unwind$?_stab@?$ray_collider@$0A@$0A@$00$0A@@@QEAAXPEBVAABBNoLeafNode@Opcode@@@Z
pdata	ENDS
;	COMDAT pdata
pdata	SEGMENT
$pdata$?_stab@?$ray_collider@$0A@$0A@$0A@$00@@QEAAXPEBVAABBNoLeafNode@Opcode@@@Z DD imagerel $LN322@stab
	DD	imagerel $LN322@stab+870
	DD	imagerel $unwind$?_stab@?$ray_collider@$0A@$0A@$0A@$00@@QEAAXPEBVAABBNoLeafNode@Opcode@@@Z
pdata	ENDS
;	COMDAT pdata
pdata	SEGMENT
$pdata$?_stab@?$ray_collider@$0A@$0A@$0A@$0A@@@QEAAXPEBVAABBNoLeafNode@Opcode@@@Z DD imagerel $LN322@stab
	DD	imagerel $LN322@stab+870
	DD	imagerel $unwind$?_stab@?$ray_collider@$0A@$0A@$0A@$0A@@@QEAAXPEBVAABBNoLeafNode@Opcode@@@Z
pdata	ENDS
;	COMDAT pdata
pdata	SEGMENT
$pdata$?ray_query@COLLIDER@CDB@@QEAAXPEBVMODEL@2@AEBU?$_vector3@M@@1M@Z DD imagerel $LN573@ray_query
	DD	imagerel $LN573@ray_query+65
	DD	imagerel $unwind$?ray_query@COLLIDER@CDB@@QEAAXPEBVMODEL@2@AEBU?$_vector3@M@@1M@Z
pdata	ENDS
;	COMDAT pdata
pdata	SEGMENT
$pdata$4$?ray_query@COLLIDER@CDB@@QEAAXPEBVMODEL@2@AEBU?$_vector3@M@@1M@Z DD imagerel $LN573@ray_query+65
	DD	imagerel $LN573@ray_query+254
	DD	imagerel $chain$4$?ray_query@COLLIDER@CDB@@QEAAXPEBVMODEL@2@AEBU?$_vector3@M@@1M@Z
pdata	ENDS
;	COMDAT pdata
pdata	SEGMENT
$pdata$5$?ray_query@COLLIDER@CDB@@QEAAXPEBVMODEL@2@AEBU?$_vector3@M@@1M@Z DD imagerel $LN573@ray_query+254
	DD	imagerel $LN573@ray_query+1402
	DD	imagerel $chain$5$?ray_query@COLLIDER@CDB@@QEAAXPEBVMODEL@2@AEBU?$_vector3@M@@1M@Z
pdata	ENDS
;	COMDAT pdata
pdata	SEGMENT
$pdata$7$?ray_query@COLLIDER@CDB@@QEAAXPEBVMODEL@2@AEBU?$_vector3@M@@1M@Z DD imagerel $LN573@ray_query+1402
	DD	imagerel $LN573@ray_query+2867
	DD	imagerel $chain$7$?ray_query@COLLIDER@CDB@@QEAAXPEBVMODEL@2@AEBU?$_vector3@M@@1M@Z
pdata	ENDS
;	COMDAT pdata
pdata	SEGMENT
$pdata$8$?ray_query@COLLIDER@CDB@@QEAAXPEBVMODEL@2@AEBU?$_vector3@M@@1M@Z DD imagerel $LN573@ray_query+2867
	DD	imagerel $LN573@ray_query+2937
	DD	imagerel $chain$8$?ray_query@COLLIDER@CDB@@QEAAXPEBVMODEL@2@AEBU?$_vector3@M@@1M@Z
pdata	ENDS
;	COMDAT xdata
xdata	SEGMENT
$chain$8$?ray_query@COLLIDER@CDB@@QEAAXPEBVMODEL@2@AEBU?$_vector3@M@@1M@Z DD 021H
	DD	imagerel $LN573@ray_query+254
	DD	imagerel $LN573@ray_query+1402
	DD	imagerel $chain$5$?ray_query@COLLIDER@CDB@@QEAAXPEBVMODEL@2@AEBU?$_vector3@M@@1M@Z
xdata	ENDS
;	COMDAT xdata
xdata	SEGMENT
$chain$7$?ray_query@COLLIDER@CDB@@QEAAXPEBVMODEL@2@AEBU?$_vector3@M@@1M@Z DD 041621H
	DD	063c816H
	DD	064b809H
	DD	imagerel $LN573@ray_query+254
	DD	imagerel $LN573@ray_query+1402
	DD	imagerel $chain$5$?ray_query@COLLIDER@CDB@@QEAAXPEBVMODEL@2@AEBU?$_vector3@M@@1M@Z
xdata	ENDS
;	COMDAT xdata
xdata	SEGMENT
$chain$5$?ray_query@COLLIDER@CDB@@QEAAXPEBVMODEL@2@AEBU?$_vector3@M@@1M@Z DD 060021H
	DD	065a800H
	DD	0669800H
	DD	0678800H
	DD	imagerel $LN573@ray_query
	DD	imagerel $LN573@ray_query+65
	DD	imagerel $unwind$?ray_query@COLLIDER@CDB@@QEAAXPEBVMODEL@2@AEBU?$_vector3@M@@1M@Z
xdata	ENDS
;	COMDAT xdata
xdata	SEGMENT
$chain$4$?ray_query@COLLIDER@CDB@@QEAAXPEBVMODEL@2@AEBU?$_vector3@M@@1M@Z DD 0a9e21H
	DD	065a89eH
	DD	0669895H
	DD	0678885H
	DD	0d4f40bH
	DD	0dce404H
	DD	imagerel $LN573@ray_query
	DD	imagerel $LN573@ray_query+65
	DD	imagerel $unwind$?ray_query@COLLIDER@CDB@@QEAAXPEBVMODEL@2@AEBU?$_vector3@M@@1M@Z
xdata	ENDS
;	COMDAT xdata
xdata	SEGMENT
$unwind$?ray_query@COLLIDER@CDB@@QEAAXPEBVMODEL@2@AEBU?$_vector3@M@@1M@Z DD 0a3019H
	DD	068781fH
	DD	069681aH
	DD	0d50115H
	DD	060067007H
	DD	050043005H
	DD	imagerel __GSHandlerCheck
	DD	0620H
xdata	ENDS
;	COMDAT xdata
xdata	SEGMENT
$unwind$?_stab@?$ray_collider@$0A@$0A@$0A@$0A@@@QEAAXPEBVAABBNoLeafNode@Opcode@@@Z DD 01b5619H
	DD	05f847H
	DD	06e841H
	DD	07d83bH
	DD	08c835H
	DD	09b82dH
	DD	0aa828H
	DD	0b9823H
	DD	0c881eH
	DD	0d7819H
	DD	0e6815H
	DD	0243411H
	DD	01e0111H
	DD	06009700aH
	DD	05008H
	DD	imagerel __GSHandlerCheck
	DD	040H
xdata	ENDS
;	COMDAT xdata
xdata	SEGMENT
$unwind$?_stab@?$ray_collider@$0A@$0A@$0A@$00@@QEAAXPEBVAABBNoLeafNode@Opcode@@@Z DD 01b5619H
	DD	05f847H
	DD	06e841H
	DD	07d83bH
	DD	08c835H
	DD	09b82dH
	DD	0aa828H
	DD	0b9823H
	DD	0c881eH
	DD	0d7819H
	DD	0e6815H
	DD	0243411H
	DD	01e0111H
	DD	06009700aH
	DD	05008H
	DD	imagerel __GSHandlerCheck
	DD	040H
xdata	ENDS
;	COMDAT xdata
xdata	SEGMENT
$unwind$?_stab@?$ray_collider@$0A@$0A@$00$0A@@@QEAAXPEBVAABBNoLeafNode@Opcode@@@Z DD 01d5b19H
	DD	05f84cH
	DD	06e846H
	DD	07d840H
	DD	08c83aH
	DD	09b832H
	DD	0aa82dH
	DD	0b9828H
	DD	0c8823H
	DD	0d781eH
	DD	0e681aH
	DD	0255416H
	DD	0243416H
	DD	01e0116H
	DD	0700de00fH
	DD	0600cH
	DD	imagerel __GSHandlerCheck
	DD	040H
xdata	ENDS
;	COMDAT xdata
xdata	SEGMENT
$unwind$?_stab@?$ray_collider@$0A@$0A@$00$00@@QEAAXPEBVAABBNoLeafNode@Opcode@@@Z DD 01d5b19H
	DD	05f84cH
	DD	06e846H
	DD	07d840H
	DD	08c83aH
	DD	09b832H
	DD	0aa82dH
	DD	0b9828H
	DD	0c8823H
	DD	0d781eH
	DD	0e681aH
	DD	0255416H
	DD	0243416H
	DD	01e0116H
	DD	0700de00fH
	DD	0600cH
	DD	imagerel __GSHandlerCheck
	DD	040H
xdata	ENDS
;	COMDAT xdata
xdata	SEGMENT
$unwind$?_stab@?$ray_collider@$0A@$00$0A@$0A@@@QEAAXPEBVAABBNoLeafNode@Opcode@@@Z DD 01b5619H
	DD	05f847H
	DD	06e841H
	DD	07d83bH
	DD	08c835H
	DD	09b82dH
	DD	0aa828H
	DD	0b9823H
	DD	0c881eH
	DD	0d7819H
	DD	0e6815H
	DD	0243411H
	DD	01e0111H
	DD	06009700aH
	DD	05008H
	DD	imagerel __GSHandlerCheck
	DD	040H
xdata	ENDS
;	COMDAT xdata
xdata	SEGMENT
$unwind$?_stab@?$ray_collider@$0A@$00$0A@$00@@QEAAXPEBVAABBNoLeafNode@Opcode@@@Z DD 01b5619H
	DD	05f847H
	DD	06e841H
	DD	07d83bH
	DD	08c835H
	DD	09b82dH
	DD	0aa828H
	DD	0b9823H
	DD	0c881eH
	DD	0d7819H
	DD	0e6815H
	DD	0243411H
	DD	01e0111H
	DD	06009700aH
	DD	05008H
	DD	imagerel __GSHandlerCheck
	DD	040H
xdata	ENDS
;	COMDAT xdata
xdata	SEGMENT
$unwind$?_stab@?$ray_collider@$0A@$00$00$0A@@@QEAAXPEBVAABBNoLeafNode@Opcode@@@Z DD 01d5b19H
	DD	05f84cH
	DD	06e846H
	DD	07d840H
	DD	08c83aH
	DD	09b832H
	DD	0aa82dH
	DD	0b9828H
	DD	0c8823H
	DD	0d781eH
	DD	0e681aH
	DD	0255416H
	DD	0243416H
	DD	01e0116H
	DD	0700de00fH
	DD	0600cH
	DD	imagerel __GSHandlerCheck
	DD	040H
xdata	ENDS
;	COMDAT xdata
xdata	SEGMENT
$unwind$?_stab@?$ray_collider@$0A@$00$00$00@@QEAAXPEBVAABBNoLeafNode@Opcode@@@Z DD 01d5b19H
	DD	05f84cH
	DD	06e846H
	DD	07d840H
	DD	08c83aH
	DD	09b832H
	DD	0aa82dH
	DD	0b9828H
	DD	0c8823H
	DD	0d781eH
	DD	0e681aH
	DD	0255416H
	DD	0243416H
	DD	01e0116H
	DD	0700de00fH
	DD	0600cH
	DD	imagerel __GSHandlerCheck
	DD	040H
xdata	ENDS
;	COMDAT xdata
xdata	SEGMENT
$unwind$?_stab@?$ray_collider@$00$0A@$0A@$0A@@@QEAAXPEBVAABBNoLeafNode@Opcode@@@Z DD 082319H
	DD	037814H
	DD	04680fH
	DD	0e340aH
	DD	07006920aH
	DD	imagerel __GSHandlerCheck
	DD	028H
xdata	ENDS
;	COMDAT xdata
xdata	SEGMENT
$unwind$?_stab@?$ray_collider@$00$0A@$0A@$00@@QEAAXPEBVAABBNoLeafNode@Opcode@@@Z DD 082319H
	DD	037814H
	DD	04680fH
	DD	0e340aH
	DD	07006920aH
	DD	imagerel __GSHandlerCheck
	DD	028H
xdata	ENDS
;	COMDAT xdata
xdata	SEGMENT
$chain$1$?_stab@?$ray_collider@$00$0A@$00$0A@@@QEAAXPEBVAABBNoLeafNode@Opcode@@@Z DD 021H
	DD	imagerel $LN333@stab
	DD	imagerel $LN333@stab+213
	DD	imagerel $unwind$?_stab@?$ray_collider@$00$0A@$00$0A@@@QEAAXPEBVAABBNoLeafNode@Opcode@@@Z
xdata	ENDS
;	COMDAT xdata
xdata	SEGMENT
$chain$0$?_stab@?$ray_collider@$00$0A@$00$0A@@@QEAAXPEBVAABBNoLeafNode@Opcode@@@Z DD 020521H
	DD	0e6405H
	DD	imagerel $LN333@stab
	DD	imagerel $LN333@stab+213
	DD	imagerel $unwind$?_stab@?$ray_collider@$00$0A@$00$0A@@@QEAAXPEBVAABBNoLeafNode@Opcode@@@Z
xdata	ENDS
;	COMDAT xdata
xdata	SEGMENT
$unwind$?_stab@?$ray_collider@$00$0A@$00$0A@@@QEAAXPEBVAABBNoLeafNode@Opcode@@@Z DD 082319H
	DD	037814H
	DD	04680fH
	DD	0f340aH
	DD	07006920aH
	DD	imagerel __GSHandlerCheck
	DD	028H
xdata	ENDS
;	COMDAT xdata
xdata	SEGMENT
$chain$1$?_stab@?$ray_collider@$00$0A@$00$00@@QEAAXPEBVAABBNoLeafNode@Opcode@@@Z DD 021H
	DD	imagerel $LN333@stab
	DD	imagerel $LN333@stab+213
	DD	imagerel $unwind$?_stab@?$ray_collider@$00$0A@$00$00@@QEAAXPEBVAABBNoLeafNode@Opcode@@@Z
xdata	ENDS
;	COMDAT xdata
xdata	SEGMENT
$chain$0$?_stab@?$ray_collider@$00$0A@$00$00@@QEAAXPEBVAABBNoLeafNode@Opcode@@@Z DD 020521H
	DD	0e6405H
	DD	imagerel $LN333@stab
	DD	imagerel $LN333@stab+213
	DD	imagerel $unwind$?_stab@?$ray_collider@$00$0A@$00$00@@QEAAXPEBVAABBNoLeafNode@Opcode@@@Z
xdata	ENDS
;	COMDAT xdata
xdata	SEGMENT
$unwind$?_stab@?$ray_collider@$00$0A@$00$00@@QEAAXPEBVAABBNoLeafNode@Opcode@@@Z DD 082319H
	DD	037814H
	DD	04680fH
	DD	0f340aH
	DD	07006920aH
	DD	imagerel __GSHandlerCheck
	DD	028H
xdata	ENDS
;	COMDAT xdata
xdata	SEGMENT
$unwind$?_stab@?$ray_collider@$00$00$0A@$0A@@@QEAAXPEBVAABBNoLeafNode@Opcode@@@Z DD 082319H
	DD	037814H
	DD	04680fH
	DD	0e340aH
	DD	07006920aH
	DD	imagerel __GSHandlerCheck
	DD	028H
xdata	ENDS
;	COMDAT xdata
xdata	SEGMENT
$unwind$?_stab@?$ray_collider@$00$00$0A@$00@@QEAAXPEBVAABBNoLeafNode@Opcode@@@Z DD 082319H
	DD	037814H
	DD	04680fH
	DD	0e340aH
	DD	07006920aH
	DD	imagerel __GSHandlerCheck
	DD	028H
xdata	ENDS
;	COMDAT xdata
xdata	SEGMENT
$chain$1$?_stab@?$ray_collider@$00$00$00$0A@@@QEAAXPEBVAABBNoLeafNode@Opcode@@@Z DD 021H
	DD	imagerel $LN333@stab
	DD	imagerel $LN333@stab+213
	DD	imagerel $unwind$?_stab@?$ray_collider@$00$00$00$0A@@@QEAAXPEBVAABBNoLeafNode@Opcode@@@Z
xdata	ENDS
;	COMDAT xdata
xdata	SEGMENT
$chain$0$?_stab@?$ray_collider@$00$00$00$0A@@@QEAAXPEBVAABBNoLeafNode@Opcode@@@Z DD 020521H
	DD	0e6405H
	DD	imagerel $LN333@stab
	DD	imagerel $LN333@stab+213
	DD	imagerel $unwind$?_stab@?$ray_collider@$00$00$00$0A@@@QEAAXPEBVAABBNoLeafNode@Opcode@@@Z
xdata	ENDS
;	COMDAT xdata
xdata	SEGMENT
$unwind$?_stab@?$ray_collider@$00$00$00$0A@@@QEAAXPEBVAABBNoLeafNode@Opcode@@@Z DD 082319H
	DD	037814H
	DD	04680fH
	DD	0f340aH
	DD	07006920aH
	DD	imagerel __GSHandlerCheck
	DD	028H
xdata	ENDS
;	COMDAT xdata
xdata	SEGMENT
$chain$1$?_stab@?$ray_collider@$00$00$00$00@@QEAAXPEBVAABBNoLeafNode@Opcode@@@Z DD 021H
	DD	imagerel $LN333@stab
	DD	imagerel $LN333@stab+213
	DD	imagerel $unwind$?_stab@?$ray_collider@$00$00$00$00@@QEAAXPEBVAABBNoLeafNode@Opcode@@@Z
xdata	ENDS
;	COMDAT xdata
xdata	SEGMENT
$chain$0$?_stab@?$ray_collider@$00$00$00$00@@QEAAXPEBVAABBNoLeafNode@Opcode@@@Z DD 020521H
	DD	0e6405H
	DD	imagerel $LN333@stab
	DD	imagerel $LN333@stab+213
	DD	imagerel $unwind$?_stab@?$ray_collider@$00$00$00$00@@QEAAXPEBVAABBNoLeafNode@Opcode@@@Z
xdata	ENDS
;	COMDAT xdata
xdata	SEGMENT
$unwind$?_stab@?$ray_collider@$00$00$00$00@@QEAAXPEBVAABBNoLeafNode@Opcode@@@Z DD 082319H
	DD	037814H
	DD	04680fH
	DD	0f340aH
	DD	07006920aH
	DD	imagerel __GSHandlerCheck
	DD	028H
xdata	ENDS
;	COMDAT xdata
xdata	SEGMENT
$unwind$?_prim@?$ray_collider@$0A@$0A@$0A@$0A@@@QEAAXK@Z DD 0196b01H
	DD	02f86bH
	DD	03e865H
	DD	04d85aH
	DD	05c850H
	DD	06b844H
	DD	07a839H
	DD	089830H
	DD	098825H
	DD	0a7820H
	DD	0b681cH
	DD	018010dH
	DD	060057006H
	DD	03004H
xdata	ENDS
;	COMDAT xdata
xdata	SEGMENT
$unwind$?_box_sse@?$ray_collider@$0A@$0A@$0A@$0A@@@QEAAHAEBU?$_vector3@M@@0AEAM@Z DD 031f01H
	DD	0681fH
	DD	02204H
xdata	ENDS
;	COMDAT xdata
xdata	SEGMENT
$unwind$?_box_fpu@?$ray_collider@$0A@$0A@$0A@$0A@@@QEAAHAEBU?$_vector3@M@@0AEAU2@@Z DD 092919H
	DD	02981aH
	DD	038814H
	DD	04780eH
	DD	056809H
	DD	0c204H
	DD	imagerel __GSHandlerCheck
	DD	010H
xdata	ENDS
;	COMDAT xdata
xdata	SEGMENT
$unwind$?_prim@?$ray_collider@$0A@$0A@$0A@$00@@QEAAXK@Z DD 0196b01H
	DD	02f86bH
	DD	03e865H
	DD	04d85aH
	DD	05c850H
	DD	06b844H
	DD	07a839H
	DD	089830H
	DD	098825H
	DD	0a7820H
	DD	0b681cH
	DD	018010dH
	DD	060057006H
	DD	03004H
xdata	ENDS
;	COMDAT xdata
xdata	SEGMENT
$unwind$?_box_sse@?$ray_collider@$0A@$0A@$0A@$00@@QEAAHAEBU?$_vector3@M@@0AEAM@Z DD 031f01H
	DD	0681fH
	DD	02204H
xdata	ENDS
;	COMDAT xdata
xdata	SEGMENT
$unwind$?_box_fpu@?$ray_collider@$0A@$0A@$0A@$00@@QEAAHAEBU?$_vector3@M@@0AEAU2@@Z DD 092919H
	DD	02981aH
	DD	038814H
	DD	04780eH
	DD	056809H
	DD	0c204H
	DD	imagerel __GSHandlerCheck
	DD	010H
xdata	ENDS
;	COMDAT xdata
xdata	SEGMENT
$unwind$?_prim@?$ray_collider@$0A@$0A@$00$0A@@@QEAAXK@Z DD 0196b01H
	DD	02f86bH
	DD	03e865H
	DD	04d85aH
	DD	05c850H
	DD	06b844H
	DD	07a839H
	DD	089830H
	DD	098825H
	DD	0a7820H
	DD	0b681cH
	DD	018010dH
	DD	060057006H
	DD	03004H
xdata	ENDS
;	COMDAT xdata
xdata	SEGMENT
$unwind$?_box_sse@?$ray_collider@$0A@$0A@$00$0A@@@QEAAHAEBU?$_vector3@M@@0AEAM@Z DD 031f01H
	DD	0681fH
	DD	02204H
xdata	ENDS
;	COMDAT xdata
xdata	SEGMENT
$unwind$?_box_fpu@?$ray_collider@$0A@$0A@$00$0A@@@QEAAHAEBU?$_vector3@M@@0AEAU2@@Z DD 092919H
	DD	02981aH
	DD	038814H
	DD	04780eH
	DD	056809H
	DD	0c204H
	DD	imagerel __GSHandlerCheck
	DD	010H
xdata	ENDS
;	COMDAT xdata
xdata	SEGMENT
$unwind$?_prim@?$ray_collider@$0A@$0A@$00$00@@QEAAXK@Z DD 0196b01H
	DD	02f86bH
	DD	03e865H
	DD	04d85aH
	DD	05c850H
	DD	06b844H
	DD	07a839H
	DD	089830H
	DD	098825H
	DD	0a7820H
	DD	0b681cH
	DD	018010dH
	DD	060057006H
	DD	03004H
xdata	ENDS
;	COMDAT xdata
xdata	SEGMENT
$unwind$?_box_sse@?$ray_collider@$0A@$0A@$00$00@@QEAAHAEBU?$_vector3@M@@0AEAM@Z DD 031f01H
	DD	0681fH
	DD	02204H
xdata	ENDS
;	COMDAT xdata
xdata	SEGMENT
$unwind$?_box_fpu@?$ray_collider@$0A@$0A@$00$00@@QEAAHAEBU?$_vector3@M@@0AEAU2@@Z DD 092919H
	DD	02981aH
	DD	038814H
	DD	04780eH
	DD	056809H
	DD	0c204H
	DD	imagerel __GSHandlerCheck
	DD	010H
xdata	ENDS
;	COMDAT xdata
xdata	SEGMENT
$unwind$?_prim@?$ray_collider@$0A@$00$0A@$0A@@@QEAAXK@Z DD 0196f01H
	DD	02f86fH
	DD	03e869H
	DD	04d856H
	DD	05c84aH
	DD	06b83eH
	DD	07a839H
	DD	089830H
	DD	098825H
	DD	0a7820H
	DD	0b681cH
	DD	018010dH
	DD	060057006H
	DD	03004H
xdata	ENDS
;	COMDAT xdata
xdata	SEGMENT
$unwind$?_box_sse@?$ray_collider@$0A@$00$0A@$0A@@@QEAAHAEBU?$_vector3@M@@0AEAM@Z DD 031f01H
	DD	0681fH
	DD	02204H
xdata	ENDS
;	COMDAT xdata
xdata	SEGMENT
$unwind$?_box_fpu@?$ray_collider@$0A@$00$0A@$0A@@@QEAAHAEBU?$_vector3@M@@0AEAU2@@Z DD 092919H
	DD	02981aH
	DD	038814H
	DD	04780eH
	DD	056809H
	DD	0c204H
	DD	imagerel __GSHandlerCheck
	DD	010H
xdata	ENDS
;	COMDAT xdata
xdata	SEGMENT
$unwind$?_prim@?$ray_collider@$0A@$00$0A@$00@@QEAAXK@Z DD 0196f01H
	DD	02f86fH
	DD	03e860H
	DD	04d85aH
	DD	05c854H
	DD	06b84aH
	DD	07a83fH
	DD	089830H
	DD	098825H
	DD	0a7820H
	DD	0b681cH
	DD	018010dH
	DD	060057006H
	DD	03004H
xdata	ENDS
;	COMDAT xdata
xdata	SEGMENT
$unwind$?_box_sse@?$ray_collider@$0A@$00$0A@$00@@QEAAHAEBU?$_vector3@M@@0AEAM@Z DD 031f01H
	DD	0681fH
	DD	02204H
xdata	ENDS
;	COMDAT xdata
xdata	SEGMENT
$unwind$?_box_fpu@?$ray_collider@$0A@$00$0A@$00@@QEAAHAEBU?$_vector3@M@@0AEAU2@@Z DD 092919H
	DD	02981aH
	DD	038814H
	DD	04780eH
	DD	056809H
	DD	0c204H
	DD	imagerel __GSHandlerCheck
	DD	010H
xdata	ENDS
;	COMDAT xdata
xdata	SEGMENT
$unwind$?_prim@?$ray_collider@$0A@$00$00$0A@@@QEAAXK@Z DD 0196f01H
	DD	02f86fH
	DD	03e869H
	DD	04d856H
	DD	05c84aH
	DD	06b83eH
	DD	07a839H
	DD	089830H
	DD	098825H
	DD	0a7820H
	DD	0b681cH
	DD	018010dH
	DD	060057006H
	DD	03004H
xdata	ENDS
;	COMDAT xdata
xdata	SEGMENT
$unwind$?_box_sse@?$ray_collider@$0A@$00$00$0A@@@QEAAHAEBU?$_vector3@M@@0AEAM@Z DD 031f01H
	DD	0681fH
	DD	02204H
xdata	ENDS
;	COMDAT xdata
xdata	SEGMENT
$unwind$?_box_fpu@?$ray_collider@$0A@$00$00$0A@@@QEAAHAEBU?$_vector3@M@@0AEAU2@@Z DD 092919H
	DD	02981aH
	DD	038814H
	DD	04780eH
	DD	056809H
	DD	0c204H
	DD	imagerel __GSHandlerCheck
	DD	010H
xdata	ENDS
;	COMDAT xdata
xdata	SEGMENT
$unwind$?_prim@?$ray_collider@$0A@$00$00$00@@QEAAXK@Z DD 0196f01H
	DD	02f86fH
	DD	03e860H
	DD	04d85aH
	DD	05c854H
	DD	06b84aH
	DD	07a83fH
	DD	089830H
	DD	098825H
	DD	0a7820H
	DD	0b681cH
	DD	018010dH
	DD	060057006H
	DD	03004H
xdata	ENDS
;	COMDAT xdata
xdata	SEGMENT
$unwind$?_box_sse@?$ray_collider@$0A@$00$00$00@@QEAAHAEBU?$_vector3@M@@0AEAM@Z DD 031f01H
	DD	0681fH
	DD	02204H
xdata	ENDS
;	COMDAT xdata
xdata	SEGMENT
$unwind$?_box_fpu@?$ray_collider@$0A@$00$00$00@@QEAAHAEBU?$_vector3@M@@0AEAU2@@Z DD 092919H
	DD	02981aH
	DD	038814H
	DD	04780eH
	DD	056809H
	DD	0c204H
	DD	imagerel __GSHandlerCheck
	DD	010H
xdata	ENDS
;	COMDAT xdata
xdata	SEGMENT
$unwind$?_prim@?$ray_collider@$00$0A@$0A@$0A@@@QEAAXK@Z DD 0196b01H
	DD	02f86bH
	DD	03e865H
	DD	04d85aH
	DD	05c850H
	DD	06b844H
	DD	07a839H
	DD	089830H
	DD	098825H
	DD	0a7820H
	DD	0b681cH
	DD	018010dH
	DD	060057006H
	DD	03004H
xdata	ENDS
;	COMDAT xdata
xdata	SEGMENT
$unwind$?_box_sse@?$ray_collider@$00$0A@$0A@$0A@@@QEAAHAEBU?$_vector3@M@@0AEAM@Z DD 031f01H
	DD	0681fH
	DD	02204H
xdata	ENDS
;	COMDAT xdata
xdata	SEGMENT
$unwind$?_box_fpu@?$ray_collider@$00$0A@$0A@$0A@@@QEAAHAEBU?$_vector3@M@@0AEAU2@@Z DD 092919H
	DD	02981aH
	DD	038814H
	DD	04780eH
	DD	056809H
	DD	0c204H
	DD	imagerel __GSHandlerCheck
	DD	010H
xdata	ENDS
;	COMDAT xdata
xdata	SEGMENT
$unwind$?_prim@?$ray_collider@$00$0A@$0A@$00@@QEAAXK@Z DD 0196b01H
	DD	02f86bH
	DD	03e865H
	DD	04d85aH
	DD	05c850H
	DD	06b844H
	DD	07a839H
	DD	089830H
	DD	098825H
	DD	0a7820H
	DD	0b681cH
	DD	018010dH
	DD	060057006H
	DD	03004H
xdata	ENDS
;	COMDAT xdata
xdata	SEGMENT
$unwind$?_box_sse@?$ray_collider@$00$0A@$0A@$00@@QEAAHAEBU?$_vector3@M@@0AEAM@Z DD 031f01H
	DD	0681fH
	DD	02204H
xdata	ENDS
;	COMDAT xdata
xdata	SEGMENT
$unwind$?_box_fpu@?$ray_collider@$00$0A@$0A@$00@@QEAAHAEBU?$_vector3@M@@0AEAU2@@Z DD 092919H
	DD	02981aH
	DD	038814H
	DD	04780eH
	DD	056809H
	DD	0c204H
	DD	imagerel __GSHandlerCheck
	DD	010H
xdata	ENDS
;	COMDAT xdata
xdata	SEGMENT
$unwind$?_prim@?$ray_collider@$00$0A@$00$0A@@@QEAAXK@Z DD 0196b01H
	DD	02f86bH
	DD	03e865H
	DD	04d85aH
	DD	05c850H
	DD	06b844H
	DD	07a839H
	DD	089830H
	DD	098825H
	DD	0a7820H
	DD	0b681cH
	DD	018010dH
	DD	060057006H
	DD	03004H
xdata	ENDS
;	COMDAT xdata
xdata	SEGMENT
$unwind$?_box_sse@?$ray_collider@$00$0A@$00$0A@@@QEAAHAEBU?$_vector3@M@@0AEAM@Z DD 031f01H
	DD	0681fH
	DD	02204H
xdata	ENDS
;	COMDAT xdata
xdata	SEGMENT
$unwind$?_box_fpu@?$ray_collider@$00$0A@$00$0A@@@QEAAHAEBU?$_vector3@M@@0AEAU2@@Z DD 092919H
	DD	02981aH
	DD	038814H
	DD	04780eH
	DD	056809H
	DD	0c204H
	DD	imagerel __GSHandlerCheck
	DD	010H
xdata	ENDS
;	COMDAT xdata
xdata	SEGMENT
$unwind$?_prim@?$ray_collider@$00$0A@$00$00@@QEAAXK@Z DD 0196b01H
	DD	02f86bH
	DD	03e865H
	DD	04d85aH
	DD	05c850H
	DD	06b844H
	DD	07a839H
	DD	089830H
	DD	098825H
	DD	0a7820H
	DD	0b681cH
	DD	018010dH
	DD	060057006H
	DD	03004H
xdata	ENDS
;	COMDAT xdata
xdata	SEGMENT
$unwind$?_box_sse@?$ray_collider@$00$0A@$00$00@@QEAAHAEBU?$_vector3@M@@0AEAM@Z DD 031f01H
	DD	0681fH
	DD	02204H
xdata	ENDS
;	COMDAT xdata
xdata	SEGMENT
$unwind$?_box_fpu@?$ray_collider@$00$0A@$00$00@@QEAAHAEBU?$_vector3@M@@0AEAU2@@Z DD 092919H
	DD	02981aH
	DD	038814H
	DD	04780eH
	DD	056809H
	DD	0c204H
	DD	imagerel __GSHandlerCheck
	DD	010H
xdata	ENDS
;	COMDAT xdata
xdata	SEGMENT
$unwind$?_prim@?$ray_collider@$00$00$0A@$0A@@@QEAAXK@Z DD 0196f01H
	DD	02f86fH
	DD	03e869H
	DD	04d856H
	DD	05c84aH
	DD	06b83eH
	DD	07a839H
	DD	089830H
	DD	098825H
	DD	0a7820H
	DD	0b681cH
	DD	018010dH
	DD	060057006H
	DD	03004H
xdata	ENDS
;	COMDAT xdata
xdata	SEGMENT
$unwind$?_box_sse@?$ray_collider@$00$00$0A@$0A@@@QEAAHAEBU?$_vector3@M@@0AEAM@Z DD 031f01H
	DD	0681fH
	DD	02204H
xdata	ENDS
;	COMDAT xdata
xdata	SEGMENT
$unwind$?_box_fpu@?$ray_collider@$00$00$0A@$0A@@@QEAAHAEBU?$_vector3@M@@0AEAU2@@Z DD 092919H
	DD	02981aH
	DD	038814H
	DD	04780eH
	DD	056809H
	DD	0c204H
	DD	imagerel __GSHandlerCheck
	DD	010H
xdata	ENDS
;	COMDAT xdata
xdata	SEGMENT
$unwind$?_prim@?$ray_collider@$00$00$0A@$00@@QEAAXK@Z DD 0196f01H
	DD	02f86fH
	DD	03e860H
	DD	04d85aH
	DD	05c854H
	DD	06b84aH
	DD	07a83fH
	DD	089830H
	DD	098825H
	DD	0a7820H
	DD	0b681cH
	DD	018010dH
	DD	060057006H
	DD	03004H
xdata	ENDS
;	COMDAT xdata
xdata	SEGMENT
$unwind$?_box_sse@?$ray_collider@$00$00$0A@$00@@QEAAHAEBU?$_vector3@M@@0AEAM@Z DD 031f01H
	DD	0681fH
	DD	02204H
xdata	ENDS
;	COMDAT xdata
xdata	SEGMENT
$unwind$?_box_fpu@?$ray_collider@$00$00$0A@$00@@QEAAHAEBU?$_vector3@M@@0AEAU2@@Z DD 092919H
	DD	02981aH
	DD	038814H
	DD	04780eH
	DD	056809H
	DD	0c204H
	DD	imagerel __GSHandlerCheck
	DD	010H
xdata	ENDS
;	COMDAT xdata
xdata	SEGMENT
$unwind$?_prim@?$ray_collider@$00$00$00$0A@@@QEAAXK@Z DD 0196f01H
	DD	02f86fH
	DD	03e869H
	DD	04d856H
	DD	05c84aH
	DD	06b83eH
	DD	07a839H
	DD	089830H
	DD	098825H
	DD	0a7820H
	DD	0b681cH
	DD	018010dH
	DD	060057006H
	DD	03004H
xdata	ENDS
;	COMDAT xdata
xdata	SEGMENT
$unwind$?_box_sse@?$ray_collider@$00$00$00$0A@@@QEAAHAEBU?$_vector3@M@@0AEAM@Z DD 031f01H
	DD	0681fH
	DD	02204H
xdata	ENDS
;	COMDAT xdata
xdata	SEGMENT
$unwind$?_box_fpu@?$ray_collider@$00$00$00$0A@@@QEAAHAEBU?$_vector3@M@@0AEAU2@@Z DD 092919H
	DD	02981aH
	DD	038814H
	DD	04780eH
	DD	056809H
	DD	0c204H
	DD	imagerel __GSHandlerCheck
	DD	010H
xdata	ENDS
;	COMDAT xdata
xdata	SEGMENT
$unwind$?_prim@?$ray_collider@$00$00$00$00@@QEAAXK@Z DD 0196f01H
	DD	02f86fH
	DD	03e860H
	DD	04d85aH
	DD	05c854H
	DD	06b84aH
	DD	07a83fH
	DD	089830H
	DD	098825H
	DD	0a7820H
	DD	0b681cH
	DD	018010dH
	DD	060057006H
	DD	03004H
xdata	ENDS
;	COMDAT xdata
xdata	SEGMENT
$unwind$?_box_sse@?$ray_collider@$00$00$00$00@@QEAAHAEBU?$_vector3@M@@0AEAM@Z DD 031f01H
	DD	0681fH
	DD	02204H
xdata	ENDS
;	COMDAT xdata
xdata	SEGMENT
$unwind$?_box_fpu@?$ray_collider@$00$00$00$00@@QEAAHAEBU?$_vector3@M@@0AEAU2@@Z DD 092919H
	DD	02981aH
	DD	038814H
	DD	04780eH
	DD	056809H
	DD	0c204H
	DD	imagerel __GSHandlerCheck
	DD	010H
xdata	ENDS
;	COMDAT xdata
xdata	SEGMENT
$unwind$?_tri@?$ray_collider@$0A@$0A@$0A@$0A@@@QEAA_NPEAIAEAM11@Z DD 0153d01H
	DD	0f83dH
	DD	01e838H
	DD	02d830H
	DD	03c82bH
	DD	04b826H
	DD	05a821H
	DD	06981cH
	DD	077817H
	DD	086813H
	DD	012010bH
	DD	03004H
xdata	ENDS
;	COMDAT xdata
xdata	SEGMENT
$unwind$?_tri@?$ray_collider@$0A@$0A@$0A@$00@@QEAA_NPEAIAEAM11@Z DD 0153d01H
	DD	0f83dH
	DD	01e838H
	DD	02d830H
	DD	03c82bH
	DD	04b826H
	DD	05a821H
	DD	06981cH
	DD	077817H
	DD	086813H
	DD	012010bH
	DD	03004H
xdata	ENDS
;	COMDAT xdata
xdata	SEGMENT
$unwind$?_tri@?$ray_collider@$0A@$0A@$00$0A@@@QEAA_NPEAIAEAM11@Z DD 0153d01H
	DD	0f83dH
	DD	01e838H
	DD	02d830H
	DD	03c82bH
	DD	04b826H
	DD	05a821H
	DD	06981cH
	DD	077817H
	DD	086813H
	DD	012010bH
	DD	03004H
xdata	ENDS
;	COMDAT xdata
xdata	SEGMENT
$unwind$?_tri@?$ray_collider@$0A@$0A@$00$00@@QEAA_NPEAIAEAM11@Z DD 0153d01H
	DD	0f83dH
	DD	01e838H
	DD	02d830H
	DD	03c82bH
	DD	04b826H
	DD	05a821H
	DD	06981cH
	DD	077817H
	DD	086813H
	DD	012010bH
	DD	03004H
xdata	ENDS
;	COMDAT xdata
xdata	SEGMENT
$unwind$?_tri@?$ray_collider@$0A@$00$0A@$0A@@@QEAA_NPEAIAEAM11@Z DD 0174301H
	DD	0f843H
	DD	01e83eH
	DD	02d838H
	DD	03c830H
	DD	04b82bH
	DD	05a826H
	DD	069821H
	DD	07881cH
	DD	087817H
	DD	096813H
	DD	014010bH
	DD	03004H
xdata	ENDS
;	COMDAT xdata
xdata	SEGMENT
$unwind$?_tri@?$ray_collider@$0A@$00$0A@$00@@QEAA_NPEAIAEAM11@Z DD 0174301H
	DD	0f843H
	DD	01e83eH
	DD	02d838H
	DD	03c830H
	DD	04b82bH
	DD	05a826H
	DD	069821H
	DD	07881cH
	DD	087817H
	DD	096813H
	DD	014010bH
	DD	03004H
xdata	ENDS
;	COMDAT xdata
xdata	SEGMENT
$unwind$?_tri@?$ray_collider@$0A@$00$00$0A@@@QEAA_NPEAIAEAM11@Z DD 0174301H
	DD	0f843H
	DD	01e83eH
	DD	02d838H
	DD	03c830H
	DD	04b82bH
	DD	05a826H
	DD	069821H
	DD	07881cH
	DD	087817H
	DD	096813H
	DD	014010bH
	DD	03004H
xdata	ENDS
;	COMDAT xdata
xdata	SEGMENT
$unwind$?_tri@?$ray_collider@$0A@$00$00$00@@QEAA_NPEAIAEAM11@Z DD 0174301H
	DD	0f843H
	DD	01e83eH
	DD	02d838H
	DD	03c830H
	DD	04b82bH
	DD	05a826H
	DD	069821H
	DD	07881cH
	DD	087817H
	DD	096813H
	DD	014010bH
	DD	03004H
xdata	ENDS
;	COMDAT xdata
xdata	SEGMENT
$unwind$?_tri@?$ray_collider@$00$0A@$0A@$0A@@@QEAA_NPEAIAEAM11@Z DD 0153d01H
	DD	0f83dH
	DD	01e838H
	DD	02d830H
	DD	03c82bH
	DD	04b826H
	DD	05a821H
	DD	06981cH
	DD	077817H
	DD	086813H
	DD	012010bH
	DD	03004H
xdata	ENDS
;	COMDAT xdata
xdata	SEGMENT
$unwind$?_tri@?$ray_collider@$00$0A@$0A@$00@@QEAA_NPEAIAEAM11@Z DD 0153d01H
	DD	0f83dH
	DD	01e838H
	DD	02d830H
	DD	03c82bH
	DD	04b826H
	DD	05a821H
	DD	06981cH
	DD	077817H
	DD	086813H
	DD	012010bH
	DD	03004H
xdata	ENDS
;	COMDAT xdata
xdata	SEGMENT
$unwind$?_tri@?$ray_collider@$00$0A@$00$0A@@@QEAA_NPEAIAEAM11@Z DD 0153d01H
	DD	0f83dH
	DD	01e838H
	DD	02d830H
	DD	03c82bH
	DD	04b826H
	DD	05a821H
	DD	06981cH
	DD	077817H
	DD	086813H
	DD	012010bH
	DD	03004H
xdata	ENDS
;	COMDAT xdata
xdata	SEGMENT
$unwind$?_tri@?$ray_collider@$00$0A@$00$00@@QEAA_NPEAIAEAM11@Z DD 0153d01H
	DD	0f83dH
	DD	01e838H
	DD	02d830H
	DD	03c82bH
	DD	04b826H
	DD	05a821H
	DD	06981cH
	DD	077817H
	DD	086813H
	DD	012010bH
	DD	03004H
xdata	ENDS
;	COMDAT xdata
xdata	SEGMENT
$unwind$?_tri@?$ray_collider@$00$00$0A@$0A@@@QEAA_NPEAIAEAM11@Z DD 0174301H
	DD	0f843H
	DD	01e83eH
	DD	02d838H
	DD	03c830H
	DD	04b82bH
	DD	05a826H
	DD	069821H
	DD	07881cH
	DD	087817H
	DD	096813H
	DD	014010bH
	DD	03004H
xdata	ENDS
;	COMDAT xdata
xdata	SEGMENT
$unwind$?_tri@?$ray_collider@$00$00$0A@$00@@QEAA_NPEAIAEAM11@Z DD 0174301H
	DD	0f843H
	DD	01e83eH
	DD	02d838H
	DD	03c830H
	DD	04b82bH
	DD	05a826H
	DD	069821H
	DD	07881cH
	DD	087817H
	DD	096813H
	DD	014010bH
	DD	03004H
xdata	ENDS
;	COMDAT xdata
xdata	SEGMENT
$unwind$?_tri@?$ray_collider@$00$00$00$0A@@@QEAA_NPEAIAEAM11@Z DD 0174301H
	DD	0f843H
	DD	01e83eH
	DD	02d838H
	DD	03c830H
	DD	04b82bH
	DD	05a826H
	DD	069821H
	DD	07881cH
	DD	087817H
	DD	096813H
	DD	014010bH
	DD	03004H
xdata	ENDS
;	COMDAT xdata
xdata	SEGMENT
$unwind$?_tri@?$ray_collider@$00$00$00$00@@QEAA_NPEAIAEAM11@Z DD 0174301H
	DD	0f843H
	DD	01e83eH
	DD	02d838H
	DD	03c830H
	DD	04b82bH
	DD	05a826H
	DD	069821H
	DD	07881cH
	DD	087817H
	DD	096813H
	DD	014010bH
	DD	03004H
END
