; Listing generated by Microsoft (R) Optimizing Compiler Version 19.16.27031.1 

include listing.inc

INCLUDELIB OLDNAMES

EXTRN	__imp_??GicePoint@IceMaths@@QEBA?AV01@XZ:PROC
EXTRN	__imp_??TicePoint@IceMaths@@QEBA?AV01@AEBV01@@Z:PROC
EXTRN	__imp_??GicePoint@IceMaths@@QEBA?AV01@AEBV01@@Z:PROC
EXTRN	__imp_??0icePoint@IceMaths@@QEAA@MMM@Z:PROC
EXTRN	__imp_?GetNeg@AABBNoLeafNode@Opcode@@QEBAPEBV12@XZ:PROC
EXTRN	__imp_?GetPrimitive2@AABBNoLeafNode@Opcode@@QEBAIXZ:PROC
EXTRN	__imp_?HasLeaf2@AABBNoLeafNode@Opcode@@QEBAHXZ:PROC
EXTRN	__imp_?GetPos@AABBNoLeafNode@Opcode@@QEBAPEBV12@XZ:PROC
EXTRN	__imp_?GetPrimitive@AABBNoLeafNode@Opcode@@QEBAIXZ:PROC
EXTRN	__imp_?HasLeaf@AABBNoLeafNode@Opcode@@QEBAHXZ:PROC
EXTRN	??_L@YAXPEAX_K1P6AX0@Z2@Z:PROC			; `eh vector constructor iterator'
EXTRN	__imp_?GetNodes@AABBNoLeafTree@Opcode@@QEBAPEBVAABBNoLeafNode@2@XZ:PROC
EXTRN	__imp_?GetTree@OPCODE_Model@Opcode@@QEBAPEBVAABBOptimizedTree@2@XZ:PROC
EXTRN	__imp_??UicePoint@IceMaths@@QEBAMAEBV01@@Z:PROC
EXTRN	__imp_??BicePoint@IceMaths@@QEAAPEAMXZ:PROC
EXTRN	__imp_??BicePoint@IceMaths@@QEBAPEBMXZ:PROC
EXTRN	__imp_??1icePoint@IceMaths@@QEAA@XZ:PROC
EXTRN	__imp_??0icePoint@IceMaths@@QEAA@XZ:PROC
CONST	ENDS
PUBLIC	?_tri@?$box_collider@$00$00@@QEAA_NXZ		; box_collider<1,1>::_tri
PUBLIC	?_tri@?$box_collider@$00$0A@@@QEAA_NXZ		; box_collider<1,0>::_tri
PUBLIC	?_tri@?$box_collider@$0A@$00@@QEAA_NXZ		; box_collider<0,1>::_tri
PUBLIC	?_tri@?$box_collider@$0A@$0A@@@QEAA_NXZ		; box_collider<0,0>::_tri
PUBLIC	?_box@?$box_collider@$00$00@@QEAA_NAEBU?$_vector3@M@@0@Z ; box_collider<1,1>::_box
PUBLIC	?_prim@?$box_collider@$00$00@@QEAAXK@Z		; box_collider<1,1>::_prim
PUBLIC	?_box@?$box_collider@$00$0A@@@QEAA_NAEBU?$_vector3@M@@0@Z ; box_collider<1,0>::_box
PUBLIC	?_prim@?$box_collider@$00$0A@@@QEAAXK@Z		; box_collider<1,0>::_prim
PUBLIC	?_box@?$box_collider@$0A@$00@@QEAA_NAEBU?$_vector3@M@@0@Z ; box_collider<0,1>::_box
PUBLIC	?_prim@?$box_collider@$0A@$00@@QEAAXK@Z		; box_collider<0,1>::_prim
PUBLIC	?_box@?$box_collider@$0A@$0A@@@QEAA_NAEBU?$_vector3@M@@0@Z ; box_collider<0,0>::_box
PUBLIC	?_prim@?$box_collider@$0A@$0A@@@QEAAXK@Z	; box_collider<0,0>::_prim
PUBLIC	?_init@?$box_collider@$00$00@@QEAAXPEAVCOLLIDER@CDB@@PEAU?$_vector3@M@@PEAVTRI@3@AEBU4@3@Z ; box_collider<1,1>::_init
PUBLIC	?_stab@?$box_collider@$00$00@@QEAAXPEBVAABBNoLeafNode@Opcode@@@Z ; box_collider<1,1>::_stab
PUBLIC	?_init@?$box_collider@$00$0A@@@QEAAXPEAVCOLLIDER@CDB@@PEAU?$_vector3@M@@PEAVTRI@3@AEBU4@3@Z ; box_collider<1,0>::_init
PUBLIC	?_stab@?$box_collider@$00$0A@@@QEAAXPEBVAABBNoLeafNode@Opcode@@@Z ; box_collider<1,0>::_stab
PUBLIC	?_init@?$box_collider@$0A@$00@@QEAAXPEAVCOLLIDER@CDB@@PEAU?$_vector3@M@@PEAVTRI@3@AEBU4@3@Z ; box_collider<0,1>::_init
PUBLIC	?_stab@?$box_collider@$0A@$00@@QEAAXPEBVAABBNoLeafNode@Opcode@@@Z ; box_collider<0,1>::_stab
PUBLIC	?_init@?$box_collider@$0A@$0A@@@QEAAXPEAVCOLLIDER@CDB@@PEAU?$_vector3@M@@PEAVTRI@3@AEBU4@3@Z ; box_collider<0,0>::_init
PUBLIC	?_stab@?$box_collider@$0A@$0A@@@QEAAXPEBVAABBNoLeafNode@Opcode@@@Z ; box_collider<0,0>::_stab
PUBLIC	??1?$box_collider@$0A@$0A@@@QEAA@XZ		; box_collider<0,0>::~box_collider<0,0>
PUBLIC	??0?$box_collider@$0A@$0A@@@QEAA@XZ		; box_collider<0,0>::box_collider<0,0>
PUBLIC	??1?$box_collider@$0A@$00@@QEAA@XZ		; box_collider<0,1>::~box_collider<0,1>
PUBLIC	??0?$box_collider@$0A@$00@@QEAA@XZ		; box_collider<0,1>::box_collider<0,1>
PUBLIC	??1?$box_collider@$00$0A@@@QEAA@XZ		; box_collider<1,0>::~box_collider<1,0>
PUBLIC	??0?$box_collider@$00$0A@@@QEAA@XZ		; box_collider<1,0>::box_collider<1,0>
PUBLIC	??1?$box_collider@$00$00@@QEAA@XZ		; box_collider<1,1>::~box_collider<1,1>
PUBLIC	??0?$box_collider@$00$00@@QEAA@XZ		; box_collider<1,1>::box_collider<1,1>
PUBLIC	?box_query@COLLIDER@CDB@@QEAAXPEBVMODEL@2@AEBU?$_vector3@M@@1@Z ; CDB::COLLIDER::box_query
PUBLIC	?planeBoxOverlap@@YA_NAEBVicePoint@IceMaths@@M0@Z ; planeBoxOverlap
;	COMDAT pdata
pdata	SEGMENT
$pdata$?_tri@?$box_collider@$00$00@@QEAA_NXZ DD imagerel $LN452@tri
	DD	imagerel $LN452@tri+2108
	DD	imagerel $unwind$?_tri@?$box_collider@$00$00@@QEAA_NXZ
pdata	ENDS
;	COMDAT pdata
pdata	SEGMENT
$pdata$?_tri@?$box_collider@$00$0A@@@QEAA_NXZ DD imagerel $LN452@tri
	DD	imagerel $LN452@tri+2108
	DD	imagerel $unwind$?_tri@?$box_collider@$00$0A@@@QEAA_NXZ
pdata	ENDS
;	COMDAT pdata
pdata	SEGMENT
$pdata$?_tri@?$box_collider@$0A@$00@@QEAA_NXZ DD imagerel $LN452@tri
	DD	imagerel $LN452@tri+337
	DD	imagerel $unwind$?_tri@?$box_collider@$0A@$00@@QEAA_NXZ
pdata	ENDS
;	COMDAT pdata
pdata	SEGMENT
$pdata$0$?_tri@?$box_collider@$0A@$00@@QEAA_NXZ DD imagerel $LN452@tri+337
	DD	imagerel $LN452@tri+684
	DD	imagerel $chain$0$?_tri@?$box_collider@$0A@$00@@QEAA_NXZ
pdata	ENDS
;	COMDAT pdata
pdata	SEGMENT
$pdata$1$?_tri@?$box_collider@$0A@$00@@QEAA_NXZ DD imagerel $LN452@tri+684
	DD	imagerel $LN452@tri+743
	DD	imagerel $chain$1$?_tri@?$box_collider@$0A@$00@@QEAA_NXZ
pdata	ENDS
;	COMDAT pdata
pdata	SEGMENT
$pdata$2$?_tri@?$box_collider@$0A@$00@@QEAA_NXZ DD imagerel $LN452@tri+743
	DD	imagerel $LN452@tri+747
	DD	imagerel $chain$2$?_tri@?$box_collider@$0A@$00@@QEAA_NXZ
pdata	ENDS
;	COMDAT pdata
pdata	SEGMENT
$pdata$3$?_tri@?$box_collider@$0A@$00@@QEAA_NXZ DD imagerel $LN452@tri+747
	DD	imagerel $LN452@tri+751
	DD	imagerel $chain$3$?_tri@?$box_collider@$0A@$00@@QEAA_NXZ
pdata	ENDS
;	COMDAT pdata
pdata	SEGMENT
$pdata$?_tri@?$box_collider@$0A@$0A@@@QEAA_NXZ DD imagerel $LN452@tri
	DD	imagerel $LN452@tri+337
	DD	imagerel $unwind$?_tri@?$box_collider@$0A@$0A@@@QEAA_NXZ
pdata	ENDS
;	COMDAT pdata
pdata	SEGMENT
$pdata$0$?_tri@?$box_collider@$0A@$0A@@@QEAA_NXZ DD imagerel $LN452@tri+337
	DD	imagerel $LN452@tri+684
	DD	imagerel $chain$0$?_tri@?$box_collider@$0A@$0A@@@QEAA_NXZ
pdata	ENDS
;	COMDAT pdata
pdata	SEGMENT
$pdata$1$?_tri@?$box_collider@$0A@$0A@@@QEAA_NXZ DD imagerel $LN452@tri+684
	DD	imagerel $LN452@tri+743
	DD	imagerel $chain$1$?_tri@?$box_collider@$0A@$0A@@@QEAA_NXZ
pdata	ENDS
;	COMDAT pdata
pdata	SEGMENT
$pdata$2$?_tri@?$box_collider@$0A@$0A@@@QEAA_NXZ DD imagerel $LN452@tri+743
	DD	imagerel $LN452@tri+747
	DD	imagerel $chain$2$?_tri@?$box_collider@$0A@$0A@@@QEAA_NXZ
pdata	ENDS
;	COMDAT pdata
pdata	SEGMENT
$pdata$3$?_tri@?$box_collider@$0A@$0A@@@QEAA_NXZ DD imagerel $LN452@tri+747
	DD	imagerel $LN452@tri+751
	DD	imagerel $chain$3$?_tri@?$box_collider@$0A@$0A@@@QEAA_NXZ
pdata	ENDS
;	COMDAT pdata
pdata	SEGMENT
$pdata$?_prim@?$box_collider@$00$00@@QEAAXK@Z DD imagerel $LN439@prim
	DD	imagerel $LN439@prim+480
	DD	imagerel $unwind$?_prim@?$box_collider@$00$00@@QEAAXK@Z
pdata	ENDS
;	COMDAT pdata
pdata	SEGMENT
$pdata$3$?_prim@?$box_collider@$00$00@@QEAAXK@Z DD imagerel $LN439@prim+480
	DD	imagerel $LN439@prim+976
	DD	imagerel $chain$3$?_prim@?$box_collider@$00$00@@QEAAXK@Z
pdata	ENDS
;	COMDAT pdata
pdata	SEGMENT
$pdata$4$?_prim@?$box_collider@$00$00@@QEAAXK@Z DD imagerel $LN439@prim+976
	DD	imagerel $LN439@prim+2044
	DD	imagerel $chain$4$?_prim@?$box_collider@$00$00@@QEAAXK@Z
pdata	ENDS
;	COMDAT pdata
pdata	SEGMENT
$pdata$5$?_prim@?$box_collider@$00$00@@QEAAXK@Z DD imagerel $LN439@prim+2044
	DD	imagerel $LN439@prim+2080
	DD	imagerel $chain$5$?_prim@?$box_collider@$00$00@@QEAAXK@Z
pdata	ENDS
;	COMDAT pdata
pdata	SEGMENT
$pdata$6$?_prim@?$box_collider@$00$00@@QEAAXK@Z DD imagerel $LN439@prim+2080
	DD	imagerel $LN439@prim+2132
	DD	imagerel $chain$6$?_prim@?$box_collider@$00$00@@QEAAXK@Z
pdata	ENDS
;	COMDAT pdata
pdata	SEGMENT
$pdata$?_prim@?$box_collider@$00$0A@@@QEAAXK@Z DD imagerel $LN439@prim
	DD	imagerel $LN439@prim+480
	DD	imagerel $unwind$?_prim@?$box_collider@$00$0A@@@QEAAXK@Z
pdata	ENDS
;	COMDAT pdata
pdata	SEGMENT
$pdata$3$?_prim@?$box_collider@$00$0A@@@QEAAXK@Z DD imagerel $LN439@prim+480
	DD	imagerel $LN439@prim+976
	DD	imagerel $chain$3$?_prim@?$box_collider@$00$0A@@@QEAAXK@Z
pdata	ENDS
;	COMDAT pdata
pdata	SEGMENT
$pdata$4$?_prim@?$box_collider@$00$0A@@@QEAAXK@Z DD imagerel $LN439@prim+976
	DD	imagerel $LN439@prim+2044
	DD	imagerel $chain$4$?_prim@?$box_collider@$00$0A@@@QEAAXK@Z
pdata	ENDS
;	COMDAT pdata
pdata	SEGMENT
$pdata$5$?_prim@?$box_collider@$00$0A@@@QEAAXK@Z DD imagerel $LN439@prim+2044
	DD	imagerel $LN439@prim+2080
	DD	imagerel $chain$5$?_prim@?$box_collider@$00$0A@@@QEAAXK@Z
pdata	ENDS
;	COMDAT pdata
pdata	SEGMENT
$pdata$6$?_prim@?$box_collider@$00$0A@@@QEAAXK@Z DD imagerel $LN439@prim+2080
	DD	imagerel $LN439@prim+2132
	DD	imagerel $chain$6$?_prim@?$box_collider@$00$0A@@@QEAAXK@Z
pdata	ENDS
;	COMDAT pdata
pdata	SEGMENT
$pdata$?_prim@?$box_collider@$0A@$00@@QEAAXK@Z DD imagerel $LN436@prim
	DD	imagerel $LN436@prim+472
	DD	imagerel $unwind$?_prim@?$box_collider@$0A@$00@@QEAAXK@Z
pdata	ENDS
;	COMDAT pdata
pdata	SEGMENT
$pdata$1$?_prim@?$box_collider@$0A@$00@@QEAAXK@Z DD imagerel $LN436@prim+472
	DD	imagerel $LN436@prim+958
	DD	imagerel $chain$1$?_prim@?$box_collider@$0A@$00@@QEAAXK@Z
pdata	ENDS
;	COMDAT pdata
pdata	SEGMENT
$pdata$2$?_prim@?$box_collider@$0A@$00@@QEAAXK@Z DD imagerel $LN436@prim+958
	DD	imagerel $LN436@prim+1010
	DD	imagerel $chain$2$?_prim@?$box_collider@$0A@$00@@QEAAXK@Z
pdata	ENDS
;	COMDAT pdata
pdata	SEGMENT
$pdata$?_prim@?$box_collider@$0A@$0A@@@QEAAXK@Z DD imagerel $LN436@prim
	DD	imagerel $LN436@prim+472
	DD	imagerel $unwind$?_prim@?$box_collider@$0A@$0A@@@QEAAXK@Z
pdata	ENDS
;	COMDAT pdata
pdata	SEGMENT
$pdata$1$?_prim@?$box_collider@$0A@$0A@@@QEAAXK@Z DD imagerel $LN436@prim+472
	DD	imagerel $LN436@prim+958
	DD	imagerel $chain$1$?_prim@?$box_collider@$0A@$0A@@@QEAAXK@Z
pdata	ENDS
;	COMDAT pdata
pdata	SEGMENT
$pdata$2$?_prim@?$box_collider@$0A@$0A@@@QEAAXK@Z DD imagerel $LN436@prim+958
	DD	imagerel $LN436@prim+1010
	DD	imagerel $chain$2$?_prim@?$box_collider@$0A@$0A@@@QEAAXK@Z
pdata	ENDS
;	COMDAT pdata
pdata	SEGMENT
$pdata$?_init@?$box_collider@$00$00@@QEAAXPEAVCOLLIDER@CDB@@PEAU?$_vector3@M@@PEAVTRI@3@AEBU4@3@Z DD imagerel $LN21@init
	DD	imagerel $LN21@init+197
	DD	imagerel $unwind$?_init@?$box_collider@$00$00@@QEAAXPEAVCOLLIDER@CDB@@PEAU?$_vector3@M@@PEAVTRI@3@AEBU4@3@Z
pdata	ENDS
;	COMDAT pdata
pdata	SEGMENT
$pdata$?_stab@?$box_collider@$00$00@@QEAAXPEBVAABBNoLeafNode@Opcode@@@Z DD imagerel $LN62@stab
	DD	imagerel $LN62@stab+267
	DD	imagerel $unwind$?_stab@?$box_collider@$00$00@@QEAAXPEBVAABBNoLeafNode@Opcode@@@Z
pdata	ENDS
;	COMDAT pdata
pdata	SEGMENT
$pdata$?_init@?$box_collider@$00$0A@@@QEAAXPEAVCOLLIDER@CDB@@PEAU?$_vector3@M@@PEAVTRI@3@AEBU4@3@Z DD imagerel $LN21@init
	DD	imagerel $LN21@init+197
	DD	imagerel $unwind$?_init@?$box_collider@$00$0A@@@QEAAXPEAVCOLLIDER@CDB@@PEAU?$_vector3@M@@PEAVTRI@3@AEBU4@3@Z
pdata	ENDS
;	COMDAT pdata
pdata	SEGMENT
$pdata$?_stab@?$box_collider@$00$0A@@@QEAAXPEBVAABBNoLeafNode@Opcode@@@Z DD imagerel $LN44@stab
	DD	imagerel $LN44@stab+207
	DD	imagerel $unwind$?_stab@?$box_collider@$00$0A@@@QEAAXPEBVAABBNoLeafNode@Opcode@@@Z
pdata	ENDS
;	COMDAT pdata
pdata	SEGMENT
$pdata$?_init@?$box_collider@$0A@$00@@QEAAXPEAVCOLLIDER@CDB@@PEAU?$_vector3@M@@PEAVTRI@3@AEBU4@3@Z DD imagerel $LN21@init
	DD	imagerel $LN21@init+197
	DD	imagerel $unwind$?_init@?$box_collider@$0A@$00@@QEAAXPEAVCOLLIDER@CDB@@PEAU?$_vector3@M@@PEAVTRI@3@AEBU4@3@Z
pdata	ENDS
;	COMDAT pdata
pdata	SEGMENT
$pdata$?_stab@?$box_collider@$0A@$00@@QEAAXPEBVAABBNoLeafNode@Opcode@@@Z DD imagerel $LN62@stab
	DD	imagerel $LN62@stab+267
	DD	imagerel $unwind$?_stab@?$box_collider@$0A@$00@@QEAAXPEBVAABBNoLeafNode@Opcode@@@Z
pdata	ENDS
;	COMDAT pdata
pdata	SEGMENT
$pdata$?_init@?$box_collider@$0A@$0A@@@QEAAXPEAVCOLLIDER@CDB@@PEAU?$_vector3@M@@PEAVTRI@3@AEBU4@3@Z DD imagerel $LN21@init
	DD	imagerel $LN21@init+197
	DD	imagerel $unwind$?_init@?$box_collider@$0A@$0A@@@QEAAXPEAVCOLLIDER@CDB@@PEAU?$_vector3@M@@PEAVTRI@3@AEBU4@3@Z
pdata	ENDS
;	COMDAT pdata
pdata	SEGMENT
$pdata$?_stab@?$box_collider@$0A@$0A@@@QEAAXPEBVAABBNoLeafNode@Opcode@@@Z DD imagerel $LN44@stab
	DD	imagerel $LN44@stab+207
	DD	imagerel $unwind$?_stab@?$box_collider@$0A@$0A@@@QEAAXPEBVAABBNoLeafNode@Opcode@@@Z
pdata	ENDS
;	COMDAT pdata
pdata	SEGMENT
$pdata$??1?$box_collider@$0A@$0A@@@QEAA@XZ DD imagerel $LN11@box_collid
	DD	imagerel $LN11@box_collid+44
	DD	imagerel $unwind$??1?$box_collider@$0A@$0A@@@QEAA@XZ
pdata	ENDS
;	COMDAT pdata
pdata	SEGMENT
$pdata$??0?$box_collider@$0A@$0A@@@QEAA@XZ DD imagerel $LN12@box_collid
	DD	imagerel $LN12@box_collid+69
	DD	imagerel $unwind$??0?$box_collider@$0A@$0A@@@QEAA@XZ
pdata	ENDS
;	COMDAT pdata
pdata	SEGMENT
$pdata$??1?$box_collider@$0A@$00@@QEAA@XZ DD imagerel $LN11@box_collid
	DD	imagerel $LN11@box_collid+44
	DD	imagerel $unwind$??1?$box_collider@$0A@$00@@QEAA@XZ
pdata	ENDS
;	COMDAT pdata
pdata	SEGMENT
$pdata$??0?$box_collider@$0A@$00@@QEAA@XZ DD imagerel $LN12@box_collid
	DD	imagerel $LN12@box_collid+69
	DD	imagerel $unwind$??0?$box_collider@$0A@$00@@QEAA@XZ
pdata	ENDS
;	COMDAT pdata
pdata	SEGMENT
$pdata$??1?$box_collider@$00$0A@@@QEAA@XZ DD imagerel $LN11@box_collid
	DD	imagerel $LN11@box_collid+44
	DD	imagerel $unwind$??1?$box_collider@$00$0A@@@QEAA@XZ
pdata	ENDS
;	COMDAT pdata
pdata	SEGMENT
$pdata$??0?$box_collider@$00$0A@@@QEAA@XZ DD imagerel $LN12@box_collid
	DD	imagerel $LN12@box_collid+69
	DD	imagerel $unwind$??0?$box_collider@$00$0A@@@QEAA@XZ
pdata	ENDS
;	COMDAT pdata
pdata	SEGMENT
$pdata$??1?$box_collider@$00$00@@QEAA@XZ DD imagerel $LN11@box_collid
	DD	imagerel $LN11@box_collid+44
	DD	imagerel $unwind$??1?$box_collider@$00$00@@QEAA@XZ
pdata	ENDS
;	COMDAT pdata
pdata	SEGMENT
$pdata$??0?$box_collider@$00$00@@QEAA@XZ DD imagerel $LN12@box_collid
	DD	imagerel $LN12@box_collid+69
	DD	imagerel $unwind$??0?$box_collider@$00$00@@QEAA@XZ
pdata	ENDS
;	COMDAT pdata
pdata	SEGMENT
$pdata$?box_query@COLLIDER@CDB@@QEAAXPEBVMODEL@2@AEBU?$_vector3@M@@1@Z DD imagerel $LN221@box_query
	DD	imagerel $LN221@box_query+1238
	DD	imagerel $unwind$?box_query@COLLIDER@CDB@@QEAAXPEBVMODEL@2@AEBU?$_vector3@M@@1@Z
pdata	ENDS
;	COMDAT pdata
pdata	SEGMENT
$pdata$?planeBoxOverlap@@YA_NAEBVicePoint@IceMaths@@M0@Z DD imagerel $LN70@planeBoxOv
	DD	imagerel $LN70@planeBoxOv+275
	DD	imagerel $unwind$?planeBoxOverlap@@YA_NAEBVicePoint@IceMaths@@M0@Z
;	COMDAT xdata
xdata	SEGMENT
$unwind$?planeBoxOverlap@@YA_NAEBVicePoint@IceMaths@@M0@Z DD 0d6c01H
	DD	01a86cH
	DD	0b83eH
	DD	029835H
	DD	038826H
	DD	047820H
	DD	05681bH
	DD	0c204H
xdata	ENDS
;	COMDAT xdata
xdata	SEGMENT
$ip2state$?box_query@COLLIDER@CDB@@QEAAXPEBVMODEL@2@AEBU?$_vector3@M@@1@Z DD imagerel ?box_query@COLLIDER@CDB@@QEAAXPEBVMODEL@2@AEBU?$_vector3@M@@1@Z+87
	DD	0ffffffffH
	DD	imagerel ?box_query@COLLIDER@CDB@@QEAAXPEBVMODEL@2@AEBU?$_vector3@M@@1@Z+141
	DD	01H
	DD	imagerel ?box_query@COLLIDER@CDB@@QEAAXPEBVMODEL@2@AEBU?$_vector3@M@@1@Z+179
	DD	02H
	DD	imagerel ?box_query@COLLIDER@CDB@@QEAAXPEBVMODEL@2@AEBU?$_vector3@M@@1@Z+367
	DD	03H
	DD	imagerel ?box_query@COLLIDER@CDB@@QEAAXPEBVMODEL@2@AEBU?$_vector3@M@@1@Z+393
	DD	0ffffffffH
	DD	imagerel ?box_query@COLLIDER@CDB@@QEAAXPEBVMODEL@2@AEBU?$_vector3@M@@1@Z+430
	DD	05H
	DD	imagerel ?box_query@COLLIDER@CDB@@QEAAXPEBVMODEL@2@AEBU?$_vector3@M@@1@Z+608
	DD	06H
	DD	imagerel ?box_query@COLLIDER@CDB@@QEAAXPEBVMODEL@2@AEBU?$_vector3@M@@1@Z+634
	DD	03H
	DD	imagerel ?box_query@COLLIDER@CDB@@QEAAXPEBVMODEL@2@AEBU?$_vector3@M@@1@Z+685
	DD	08H
	DD	imagerel ?box_query@COLLIDER@CDB@@QEAAXPEBVMODEL@2@AEBU?$_vector3@M@@1@Z+863
	DD	09H
	DD	imagerel ?box_query@COLLIDER@CDB@@QEAAXPEBVMODEL@2@AEBU?$_vector3@M@@1@Z+889
	DD	03H
	DD	imagerel ?box_query@COLLIDER@CDB@@QEAAXPEBVMODEL@2@AEBU?$_vector3@M@@1@Z+935
	DD	0bH
	DD	imagerel ?box_query@COLLIDER@CDB@@QEAAXPEBVMODEL@2@AEBU?$_vector3@M@@1@Z+1155
	DD	0cH
	DD	imagerel ?box_query@COLLIDER@CDB@@QEAAXPEBVMODEL@2@AEBU?$_vector3@M@@1@Z+1184
	DD	03H
	DD	imagerel ?box_query@COLLIDER@CDB@@QEAAXPEBVMODEL@2@AEBU?$_vector3@M@@1@Z+1200
	DD	0ffffffffH
xdata	ENDS
;	COMDAT xdata
xdata	SEGMENT
$stateUnwindMap$?box_query@COLLIDER@CDB@@QEAAXPEBVMODEL@2@AEBU?$_vector3@M@@1@Z DD 0ffffffffH
	DD	imagerel ?dtor$4@?0??box_query@COLLIDER@CDB@@QEAAXPEBVMODEL@2@AEBU?$_vector3@M@@1@Z@4HA
	DD	00H
	DD	imagerel ?dtor$5@?0??box_query@COLLIDER@CDB@@QEAAXPEBVMODEL@2@AEBU?$_vector3@M@@1@Z@4HA
	DD	0ffffffffH
	DD	imagerel ?dtor$0@?0??box_query@COLLIDER@CDB@@QEAAXPEBVMODEL@2@AEBU?$_vector3@M@@1@Z@4HA
	DD	0ffffffffH
	DD	imagerel __std_terminate
	DD	0ffffffffH
	DD	imagerel ?dtor$12@?0??box_query@COLLIDER@CDB@@QEAAXPEBVMODEL@2@AEBU?$_vector3@M@@1@Z@4HA
	DD	04H
	DD	imagerel ?dtor$13@?0??box_query@COLLIDER@CDB@@QEAAXPEBVMODEL@2@AEBU?$_vector3@M@@1@Z@4HA
	DD	0ffffffffH
	DD	imagerel ?dtor$1@?0??box_query@COLLIDER@CDB@@QEAAXPEBVMODEL@2@AEBU?$_vector3@M@@1@Z@4HA
	DD	0ffffffffH
	DD	imagerel ?dtor$20@?0??box_query@COLLIDER@CDB@@QEAAXPEBVMODEL@2@AEBU?$_vector3@M@@1@Z@4HA
	DD	07H
	DD	imagerel ?dtor$21@?0??box_query@COLLIDER@CDB@@QEAAXPEBVMODEL@2@AEBU?$_vector3@M@@1@Z@4HA
	DD	0ffffffffH
	DD	imagerel ?dtor$2@?0??box_query@COLLIDER@CDB@@QEAAXPEBVMODEL@2@AEBU?$_vector3@M@@1@Z@4HA
	DD	0ffffffffH
	DD	imagerel ?dtor$28@?0??box_query@COLLIDER@CDB@@QEAAXPEBVMODEL@2@AEBU?$_vector3@M@@1@Z@4HA
	DD	0aH
	DD	imagerel ?dtor$29@?0??box_query@COLLIDER@CDB@@QEAAXPEBVMODEL@2@AEBU?$_vector3@M@@1@Z@4HA
	DD	0ffffffffH
	DD	imagerel ?dtor$3@?0??box_query@COLLIDER@CDB@@QEAAXPEBVMODEL@2@AEBU?$_vector3@M@@1@Z@4HA
xdata	ENDS
;	COMDAT CONST
CONST	SEGMENT
$cppxdata$?box_query@COLLIDER@CDB@@QEAAXPEBVMODEL@2@AEBU?$_vector3@M@@1@Z DQ 00000000d19930522r ; 2.77979e-313
	DD	imagerel $stateUnwindMap$?box_query@COLLIDER@CDB@@QEAAXPEBVMODEL@2@AEBU?$_vector3@M@@1@Z
	DQ	00000000000000000r		; 0
	DD	0fH
	DD	imagerel $ip2state$?box_query@COLLIDER@CDB@@QEAAXPEBVMODEL@2@AEBU?$_vector3@M@@1@Z
	DQ	00000000000000040r		; 3.16202e-322
	DD	01H
CONST	ENDS
;	COMDAT xdata
xdata	SEGMENT
$unwind$?box_query@COLLIDER@CDB@@QEAAXPEBVMODEL@2@AEBU?$_vector3@M@@1@Z DD 0d3e19H
	DD	022782dH
	DD	0236829H
	DD	0503425H
	DD	0480118H
	DD	0e008f00aH
	DD	060057006H
	DD	05004H
	DD	imagerel __GSHandlerCheck_EH
	DD	imagerel $cppxdata$?box_query@COLLIDER@CDB@@QEAAXPEBVMODEL@2@AEBU?$_vector3@M@@1@Z
	DD	0212H
xdata	ENDS
;	COMDAT xdata
xdata	SEGMENT
$ip2state$??0?$box_collider@$00$00@@QEAA@XZ DD imagerel ??0?$box_collider@$00$00@@QEAA@XZ+54
	DD	01H
xdata	ENDS
;	COMDAT xdata
xdata	SEGMENT
$stateUnwindMap$??0?$box_collider@$00$00@@QEAA@XZ DD 0ffffffffH
	DD	imagerel ?dtor$0@?0???0?$box_collider@$00$00@@QEAA@XZ@4HA
	DD	00H
	DD	imagerel ?dtor$1@?0???0?$box_collider@$00$00@@QEAA@XZ@4HA
xdata	ENDS
;	COMDAT CONST
CONST	SEGMENT
$cppxdata$??0?$box_collider@$00$00@@QEAA@XZ DQ 00000000219930522r ; 4.45598e-314
	DD	imagerel $stateUnwindMap$??0?$box_collider@$00$00@@QEAA@XZ
	DQ	00000000000000000r		; 0
	DD	01H
	DD	imagerel $ip2state$??0?$box_collider@$00$00@@QEAA@XZ
	DQ	00000000000000030r		; 2.37152e-322
	DD	01H
CONST	ENDS
;	COMDAT xdata
xdata	SEGMENT
$unwind$??0?$box_collider@$00$00@@QEAA@XZ DD 021311H
	DD	03006720aH
	DD	imagerel __CxxFrameHandler3
	DD	imagerel $cppxdata$??0?$box_collider@$00$00@@QEAA@XZ
xdata	ENDS
;	COMDAT xdata
xdata	SEGMENT
$ip2state$??1?$box_collider@$00$00@@QEAA@XZ DD imagerel ??1?$box_collider@$00$00@@QEAA@XZ+33
	DD	0ffffffffH
xdata	ENDS
;	COMDAT CONST
CONST	SEGMENT
$cppxdata$??1?$box_collider@$00$00@@QEAA@XZ DQ 00000000019930522r ; 2.11987e-315
	DQ	00000000000000000r		; 0
	DQ	00000000100000000r		; 2.122e-314
	DD	imagerel $ip2state$??1?$box_collider@$00$00@@QEAA@XZ
	DQ	00000000000000020r		; 1.58101e-322
	DD	05H
CONST	ENDS
;	COMDAT xdata
xdata	SEGMENT
$unwind$??1?$box_collider@$00$00@@QEAA@XZ DD 010d19H
	DD	06204H
	DD	imagerel __CxxFrameHandler3
	DD	imagerel $cppxdata$??1?$box_collider@$00$00@@QEAA@XZ
xdata	ENDS
;	COMDAT xdata
xdata	SEGMENT
$ip2state$??0?$box_collider@$00$0A@@@QEAA@XZ DD imagerel ??0?$box_collider@$00$0A@@@QEAA@XZ+54
	DD	01H
xdata	ENDS
;	COMDAT xdata
xdata	SEGMENT
$stateUnwindMap$??0?$box_collider@$00$0A@@@QEAA@XZ DD 0ffffffffH
	DD	imagerel ?dtor$0@?0???0?$box_collider@$00$0A@@@QEAA@XZ@4HA
	DD	00H
	DD	imagerel ?dtor$1@?0???0?$box_collider@$00$0A@@@QEAA@XZ@4HA
xdata	ENDS
;	COMDAT CONST
CONST	SEGMENT
$cppxdata$??0?$box_collider@$00$0A@@@QEAA@XZ DQ 00000000219930522r ; 4.45598e-314
	DD	imagerel $stateUnwindMap$??0?$box_collider@$00$0A@@@QEAA@XZ
	DQ	00000000000000000r		; 0
	DD	01H
	DD	imagerel $ip2state$??0?$box_collider@$00$0A@@@QEAA@XZ
	DQ	00000000000000030r		; 2.37152e-322
	DD	01H
CONST	ENDS
;	COMDAT xdata
xdata	SEGMENT
$unwind$??0?$box_collider@$00$0A@@@QEAA@XZ DD 021311H
	DD	03006720aH
	DD	imagerel __CxxFrameHandler3
	DD	imagerel $cppxdata$??0?$box_collider@$00$0A@@@QEAA@XZ
xdata	ENDS
;	COMDAT xdata
xdata	SEGMENT
$ip2state$??1?$box_collider@$00$0A@@@QEAA@XZ DD imagerel ??1?$box_collider@$00$0A@@@QEAA@XZ+33
	DD	0ffffffffH
xdata	ENDS
;	COMDAT CONST
CONST	SEGMENT
$cppxdata$??1?$box_collider@$00$0A@@@QEAA@XZ DQ 00000000019930522r ; 2.11987e-315
	DQ	00000000000000000r		; 0
	DQ	00000000100000000r		; 2.122e-314
	DD	imagerel $ip2state$??1?$box_collider@$00$0A@@@QEAA@XZ
	DQ	00000000000000020r		; 1.58101e-322
	DD	05H
CONST	ENDS
;	COMDAT xdata
xdata	SEGMENT
$unwind$??1?$box_collider@$00$0A@@@QEAA@XZ DD 010d19H
	DD	06204H
	DD	imagerel __CxxFrameHandler3
	DD	imagerel $cppxdata$??1?$box_collider@$00$0A@@@QEAA@XZ
xdata	ENDS
;	COMDAT xdata
xdata	SEGMENT
$ip2state$??0?$box_collider@$0A@$00@@QEAA@XZ DD imagerel ??0?$box_collider@$0A@$00@@QEAA@XZ+54
	DD	01H
xdata	ENDS
;	COMDAT xdata
xdata	SEGMENT
$stateUnwindMap$??0?$box_collider@$0A@$00@@QEAA@XZ DD 0ffffffffH
	DD	imagerel ?dtor$0@?0???0?$box_collider@$0A@$00@@QEAA@XZ@4HA
	DD	00H
	DD	imagerel ?dtor$1@?0???0?$box_collider@$0A@$00@@QEAA@XZ@4HA
xdata	ENDS
;	COMDAT CONST
CONST	SEGMENT
$cppxdata$??0?$box_collider@$0A@$00@@QEAA@XZ DQ 00000000219930522r ; 4.45598e-314
	DD	imagerel $stateUnwindMap$??0?$box_collider@$0A@$00@@QEAA@XZ
	DQ	00000000000000000r		; 0
	DD	01H
	DD	imagerel $ip2state$??0?$box_collider@$0A@$00@@QEAA@XZ
	DQ	00000000000000030r		; 2.37152e-322
	DD	01H
CONST	ENDS
;	COMDAT xdata
xdata	SEGMENT
$unwind$??0?$box_collider@$0A@$00@@QEAA@XZ DD 021311H
	DD	03006720aH
	DD	imagerel __CxxFrameHandler3
	DD	imagerel $cppxdata$??0?$box_collider@$0A@$00@@QEAA@XZ
xdata	ENDS
;	COMDAT xdata
xdata	SEGMENT
$ip2state$??1?$box_collider@$0A@$00@@QEAA@XZ DD imagerel ??1?$box_collider@$0A@$00@@QEAA@XZ+33
	DD	0ffffffffH
xdata	ENDS
;	COMDAT CONST
CONST	SEGMENT
$cppxdata$??1?$box_collider@$0A@$00@@QEAA@XZ DQ 00000000019930522r ; 2.11987e-315
	DQ	00000000000000000r		; 0
	DQ	00000000100000000r		; 2.122e-314
	DD	imagerel $ip2state$??1?$box_collider@$0A@$00@@QEAA@XZ
	DQ	00000000000000020r		; 1.58101e-322
	DD	05H
CONST	ENDS
;	COMDAT xdata
xdata	SEGMENT
$unwind$??1?$box_collider@$0A@$00@@QEAA@XZ DD 010d19H
	DD	06204H
	DD	imagerel __CxxFrameHandler3
	DD	imagerel $cppxdata$??1?$box_collider@$0A@$00@@QEAA@XZ
xdata	ENDS
;	COMDAT xdata
xdata	SEGMENT
$ip2state$??0?$box_collider@$0A@$0A@@@QEAA@XZ DD imagerel ??0?$box_collider@$0A@$0A@@@QEAA@XZ+54
	DD	01H
xdata	ENDS
;	COMDAT xdata
xdata	SEGMENT
$stateUnwindMap$??0?$box_collider@$0A@$0A@@@QEAA@XZ DD 0ffffffffH
	DD	imagerel ?dtor$0@?0???0?$box_collider@$0A@$0A@@@QEAA@XZ@4HA
	DD	00H
	DD	imagerel ?dtor$1@?0???0?$box_collider@$0A@$0A@@@QEAA@XZ@4HA
xdata	ENDS
;	COMDAT CONST
CONST	SEGMENT
$cppxdata$??0?$box_collider@$0A@$0A@@@QEAA@XZ DQ 00000000219930522r ; 4.45598e-314
	DD	imagerel $stateUnwindMap$??0?$box_collider@$0A@$0A@@@QEAA@XZ
	DQ	00000000000000000r		; 0
	DD	01H
	DD	imagerel $ip2state$??0?$box_collider@$0A@$0A@@@QEAA@XZ
	DQ	00000000000000030r		; 2.37152e-322
	DD	01H
CONST	ENDS
;	COMDAT xdata
xdata	SEGMENT
$unwind$??0?$box_collider@$0A@$0A@@@QEAA@XZ DD 021311H
	DD	03006720aH
	DD	imagerel __CxxFrameHandler3
	DD	imagerel $cppxdata$??0?$box_collider@$0A@$0A@@@QEAA@XZ
xdata	ENDS
;	COMDAT xdata
xdata	SEGMENT
$ip2state$??1?$box_collider@$0A@$0A@@@QEAA@XZ DD imagerel ??1?$box_collider@$0A@$0A@@@QEAA@XZ+33
	DD	0ffffffffH
xdata	ENDS
;	COMDAT CONST
CONST	SEGMENT
$cppxdata$??1?$box_collider@$0A@$0A@@@QEAA@XZ DQ 00000000019930522r ; 2.11987e-315
	DQ	00000000000000000r		; 0
	DQ	00000000100000000r		; 2.122e-314
	DD	imagerel $ip2state$??1?$box_collider@$0A@$0A@@@QEAA@XZ
	DQ	00000000000000020r		; 1.58101e-322
	DD	05H
CONST	ENDS
;	COMDAT xdata
xdata	SEGMENT
$unwind$??1?$box_collider@$0A@$0A@@@QEAA@XZ DD 010d19H
	DD	06204H
	DD	imagerel __CxxFrameHandler3
	DD	imagerel $cppxdata$??1?$box_collider@$0A@$0A@@@QEAA@XZ
xdata	ENDS
;	COMDAT xdata
xdata	SEGMENT
$unwind$?_stab@?$box_collider@$0A@$0A@@@QEAAXPEBVAABBNoLeafNode@Opcode@@@Z DD 061201H
	DD	026812H
	DD	08340aH
	DD	07006520aH
xdata	ENDS
;	COMDAT xdata
xdata	SEGMENT
$unwind$?_init@?$box_collider@$0A@$0A@@@QEAAXPEAVCOLLIDER@CDB@@PEAU?$_vector3@M@@PEAVTRI@3@AEBU4@3@Z DD 010401H
	DD	02204H
xdata	ENDS
;	COMDAT xdata
xdata	SEGMENT
$unwind$?_stab@?$box_collider@$0A@$00@@QEAAXPEBVAABBNoLeafNode@Opcode@@@Z DD 081701H
	DD	026817H
	DD	09640fH
	DD	08340fH
	DD	0700b520fH
xdata	ENDS
;	COMDAT xdata
xdata	SEGMENT
$unwind$?_init@?$box_collider@$0A@$00@@QEAAXPEAVCOLLIDER@CDB@@PEAU?$_vector3@M@@PEAVTRI@3@AEBU4@3@Z DD 010401H
	DD	02204H
xdata	ENDS
;	COMDAT xdata
xdata	SEGMENT
$unwind$?_stab@?$box_collider@$00$0A@@@QEAAXPEBVAABBNoLeafNode@Opcode@@@Z DD 061201H
	DD	026812H
	DD	08340aH
	DD	07006520aH
xdata	ENDS
;	COMDAT xdata
xdata	SEGMENT
$unwind$?_init@?$box_collider@$00$0A@@@QEAAXPEAVCOLLIDER@CDB@@PEAU?$_vector3@M@@PEAVTRI@3@AEBU4@3@Z DD 010401H
	DD	02204H
xdata	ENDS
;	COMDAT xdata
xdata	SEGMENT
$unwind$?_stab@?$box_collider@$00$00@@QEAAXPEBVAABBNoLeafNode@Opcode@@@Z DD 081701H
	DD	026817H
	DD	09640fH
	DD	08340fH
	DD	0700b520fH
xdata	ENDS
;	COMDAT xdata
xdata	SEGMENT
$unwind$?_init@?$box_collider@$00$00@@QEAAXPEAVCOLLIDER@CDB@@PEAU?$_vector3@M@@PEAVTRI@3@AEBU4@3@Z DD 010401H
	DD	02204H
xdata	ENDS
;	COMDAT xdata
xdata	SEGMENT
$chain$2$?_prim@?$box_collider@$0A@$0A@@@QEAAXK@Z DD 021H
	DD	imagerel $LN436@prim
	DD	imagerel $LN436@prim+472
	DD	imagerel $unwind$?_prim@?$box_collider@$0A@$0A@@@QEAAXK@Z
xdata	ENDS
;	COMDAT xdata
xdata	SEGMENT
$chain$1$?_prim@?$box_collider@$0A@$0A@@@QEAAXK@Z DD 041b21H
	DD	09c81bH
	DD	0ab809H
	DD	imagerel $LN436@prim
	DD	imagerel $LN436@prim+472
	DD	imagerel $unwind$?_prim@?$box_collider@$0A@$0A@@@QEAAXK@Z
xdata	ENDS
;	COMDAT xdata
xdata	SEGMENT
$unwind$?_prim@?$box_collider@$0A@$0A@@@QEAAXK@Z DD 0154101H
	DD	0ba841H
	DD	0c9835H
	DD	0d8830H
	DD	0e782bH
	DD	0f6827H
	DD	02a3420H
	DD	0200120H
	DD	0e013f015H
	DD	0c00fd011H
	DD	0600c700dH
	DD	0500bH
xdata	ENDS
;	COMDAT xdata
xdata	SEGMENT
$chain$2$?_prim@?$box_collider@$0A@$00@@QEAAXK@Z DD 021H
	DD	imagerel $LN436@prim
	DD	imagerel $LN436@prim+472
	DD	imagerel $unwind$?_prim@?$box_collider@$0A@$00@@QEAAXK@Z
xdata	ENDS
;	COMDAT xdata
xdata	SEGMENT
$chain$1$?_prim@?$box_collider@$0A@$00@@QEAAXK@Z DD 041b21H
	DD	09c81bH
	DD	0ab809H
	DD	imagerel $LN436@prim
	DD	imagerel $LN436@prim+472
	DD	imagerel $unwind$?_prim@?$box_collider@$0A@$00@@QEAAXK@Z
xdata	ENDS
;	COMDAT xdata
xdata	SEGMENT
$unwind$?_prim@?$box_collider@$0A@$00@@QEAAXK@Z DD 0154101H
	DD	0ba841H
	DD	0c9835H
	DD	0d8830H
	DD	0e782bH
	DD	0f6827H
	DD	02a3420H
	DD	0200120H
	DD	0e013f015H
	DD	0c00fd011H
	DD	0600c700dH
	DD	0500bH
xdata	ENDS
;	COMDAT xdata
xdata	SEGMENT
$chain$6$?_prim@?$box_collider@$00$0A@@@QEAAXK@Z DD 021H
	DD	imagerel $LN439@prim
	DD	imagerel $LN439@prim+480
	DD	imagerel $unwind$?_prim@?$box_collider@$00$0A@@@QEAAXK@Z
xdata	ENDS
;	COMDAT xdata
xdata	SEGMENT
$chain$5$?_prim@?$box_collider@$00$0A@@@QEAAXK@Z DD 021H
	DD	imagerel $LN439@prim+480
	DD	imagerel $LN439@prim+976
	DD	imagerel $chain$3$?_prim@?$box_collider@$00$0A@@@QEAAXK@Z
xdata	ENDS
;	COMDAT xdata
xdata	SEGMENT
$chain$4$?_prim@?$box_collider@$00$0A@@@QEAAXK@Z DD 020921H
	DD	0be809H
	DD	imagerel $LN439@prim+480
	DD	imagerel $LN439@prim+976
	DD	imagerel $chain$3$?_prim@?$box_collider@$00$0A@@@QEAAXK@Z
xdata	ENDS
;	COMDAT xdata
xdata	SEGMENT
$chain$3$?_prim@?$box_collider@$00$0A@@@QEAAXK@Z DD 082f21H
	DD	0af82fH
	DD	0cd822H
	DD	0dc815H
	DD	0eb808H
	DD	imagerel $LN439@prim
	DD	imagerel $LN439@prim+480
	DD	imagerel $unwind$?_prim@?$box_collider@$00$0A@@@QEAAXK@Z
xdata	ENDS
;	COMDAT xdata
xdata	SEGMENT
$unwind$?_prim@?$box_collider@$00$0A@@@QEAAXK@Z DD 0154e01H
	DD	0fa84eH
	DD	0109846H
	DD	0118837H
	DD	0127832H
	DD	013682dH
	DD	0323421H
	DD	0280121H
	DD	0e014f016H
	DD	0c010d012H
	DD	0600d700eH
	DD	0500cH
xdata	ENDS
;	COMDAT xdata
xdata	SEGMENT
$chain$6$?_prim@?$box_collider@$00$00@@QEAAXK@Z DD 021H
	DD	imagerel $LN439@prim
	DD	imagerel $LN439@prim+480
	DD	imagerel $unwind$?_prim@?$box_collider@$00$00@@QEAAXK@Z
xdata	ENDS
;	COMDAT xdata
xdata	SEGMENT
$chain$5$?_prim@?$box_collider@$00$00@@QEAAXK@Z DD 021H
	DD	imagerel $LN439@prim+480
	DD	imagerel $LN439@prim+976
	DD	imagerel $chain$3$?_prim@?$box_collider@$00$00@@QEAAXK@Z
xdata	ENDS
;	COMDAT xdata
xdata	SEGMENT
$chain$4$?_prim@?$box_collider@$00$00@@QEAAXK@Z DD 020921H
	DD	0be809H
	DD	imagerel $LN439@prim+480
	DD	imagerel $LN439@prim+976
	DD	imagerel $chain$3$?_prim@?$box_collider@$00$00@@QEAAXK@Z
xdata	ENDS
;	COMDAT xdata
xdata	SEGMENT
$chain$3$?_prim@?$box_collider@$00$00@@QEAAXK@Z DD 082f21H
	DD	0af82fH
	DD	0cd822H
	DD	0dc815H
	DD	0eb808H
	DD	imagerel $LN439@prim
	DD	imagerel $LN439@prim+480
	DD	imagerel $unwind$?_prim@?$box_collider@$00$00@@QEAAXK@Z
xdata	ENDS
;	COMDAT xdata
xdata	SEGMENT
$unwind$?_prim@?$box_collider@$00$00@@QEAAXK@Z DD 0154e01H
	DD	0fa84eH
	DD	0109846H
	DD	0118837H
	DD	0127832H
	DD	013682dH
	DD	0323421H
	DD	0280121H
	DD	0e014f016H
	DD	0c010d012H
	DD	0600d700eH
	DD	0500cH
xdata	ENDS
;	COMDAT xdata
xdata	SEGMENT
$chain$3$?_tri@?$box_collider@$0A@$0A@@@QEAA_NXZ DD 021H
	DD	imagerel $LN452@tri
	DD	imagerel $LN452@tri+337
	DD	imagerel $unwind$?_tri@?$box_collider@$0A@$0A@@@QEAA_NXZ
xdata	ENDS
;	COMDAT xdata
xdata	SEGMENT
$chain$2$?_tri@?$box_collider@$0A@$0A@@@QEAA_NXZ DD 020021H
	DD	03c800H
	DD	imagerel $LN452@tri
	DD	imagerel $LN452@tri+337
	DD	imagerel $unwind$?_tri@?$box_collider@$0A@$0A@@@QEAA_NXZ
xdata	ENDS
;	COMDAT xdata
xdata	SEGMENT
$chain$1$?_tri@?$box_collider@$0A@$0A@@@QEAA_NXZ DD 021H
	DD	imagerel $LN452@tri
	DD	imagerel $LN452@tri+337
	DD	imagerel $unwind$?_tri@?$box_collider@$0A@$0A@@@QEAA_NXZ
xdata	ENDS
;	COMDAT xdata
xdata	SEGMENT
$chain$0$?_tri@?$box_collider@$0A@$0A@@@QEAA_NXZ DD 020521H
	DD	03c805H
	DD	imagerel $LN452@tri
	DD	imagerel $LN452@tri+337
	DD	imagerel $unwind$?_tri@?$box_collider@$0A@$0A@@@QEAA_NXZ
xdata	ENDS
;	COMDAT xdata
xdata	SEGMENT
$unwind$?_tri@?$box_collider@$0A@$0A@@@QEAA_NXZ DD 0146201H
	DD	0f862H
	DD	01e85dH
	DD	02d84eH
	DD	04b83dH
	DD	05a838H
	DD	069833H
	DD	07882aH
	DD	087820H
	DD	096818H
	DD	015010aH
xdata	ENDS
;	COMDAT xdata
xdata	SEGMENT
$chain$3$?_tri@?$box_collider@$0A@$00@@QEAA_NXZ DD 021H
	DD	imagerel $LN452@tri
	DD	imagerel $LN452@tri+337
	DD	imagerel $unwind$?_tri@?$box_collider@$0A@$00@@QEAA_NXZ
xdata	ENDS
;	COMDAT xdata
xdata	SEGMENT
$chain$2$?_tri@?$box_collider@$0A@$00@@QEAA_NXZ DD 020021H
	DD	03c800H
	DD	imagerel $LN452@tri
	DD	imagerel $LN452@tri+337
	DD	imagerel $unwind$?_tri@?$box_collider@$0A@$00@@QEAA_NXZ
xdata	ENDS
;	COMDAT xdata
xdata	SEGMENT
$chain$1$?_tri@?$box_collider@$0A@$00@@QEAA_NXZ DD 021H
	DD	imagerel $LN452@tri
	DD	imagerel $LN452@tri+337
	DD	imagerel $unwind$?_tri@?$box_collider@$0A@$00@@QEAA_NXZ
xdata	ENDS
;	COMDAT xdata
xdata	SEGMENT
$chain$0$?_tri@?$box_collider@$0A@$00@@QEAA_NXZ DD 020521H
	DD	03c805H
	DD	imagerel $LN452@tri
	DD	imagerel $LN452@tri+337
	DD	imagerel $unwind$?_tri@?$box_collider@$0A@$00@@QEAA_NXZ
xdata	ENDS
;	COMDAT xdata
xdata	SEGMENT
$unwind$?_tri@?$box_collider@$0A@$00@@QEAA_NXZ DD 0146201H
	DD	0f862H
	DD	01e85dH
	DD	02d84eH
	DD	04b83dH
	DD	05a838H
	DD	069833H
	DD	07882aH
	DD	087820H
	DD	096818H
	DD	015010aH
xdata	ENDS
;	COMDAT xdata
xdata	SEGMENT
$unwind$?_tri@?$box_collider@$00$0A@@@QEAA_NXZ DD 0166901H
	DD	03f869H
	DD	04e853H
	DD	05d842H
	DD	06c836H
	DD	07b831H
	DD	08a82cH
	DD	099821H
	DD	0a881cH
	DD	0b7817H
	DD	0c6813H
	DD	01b010aH
xdata	ENDS
;	COMDAT xdata
xdata	SEGMENT
$unwind$?_tri@?$box_collider@$00$00@@QEAA_NXZ DD 0166901H
	DD	03f869H
	DD	04e853H
	DD	05d842H
	DD	06c836H
	DD	07b831H
	DD	08a82cH
	DD	099821H
	DD	0a881cH
	DD	0b7817H
	DD	0c6813H
	DD	01b010aH
xdata	ENDS
END
