; Listing generated by Microsoft (R) Optimizing Compiler Version 19.16.27031.1 

include listing.inc

INCLUDELIB OLDNAMES

PUBLIC	?resize@?$svector@U?$_vector3@M@@$0DA@@@QEAAXH@Z ; svector<_vector3<float>,48>::resize
PUBLIC	?_box@?$frustum_collider@$00$00@@QEAA?AW4EFC_Visible@@AEAU?$_vector3@M@@0AEAI@Z ; frustum_collider<1,1>::_box
PUBLIC	?_prim@?$frustum_collider@$00$00@@QEAAXK@Z	; frustum_collider<1,1>::_prim
PUBLIC	?_box@?$frustum_collider@$00$0A@@@QEAA?AW4EFC_Visible@@AEAU?$_vector3@M@@0AEAI@Z ; frustum_collider<1,0>::_box
PUBLIC	?_prim@?$frustum_collider@$00$0A@@@QEAAXK@Z	; frustum_collider<1,0>::_prim
PUBLIC	?_box@?$frustum_collider@$0A@$00@@QEAA?AW4EFC_Visible@@AEAU?$_vector3@M@@0AEAI@Z ; frustum_collider<0,1>::_box
PUBLIC	?_prim@?$frustum_collider@$0A@$00@@QEAAXK@Z	; frustum_collider<0,1>::_prim
PUBLIC	?_box@?$frustum_collider@$0A@$0A@@@QEAA?AW4EFC_Visible@@AEAU?$_vector3@M@@0AEAI@Z ; frustum_collider<0,0>::_box
PUBLIC	?_prim@?$frustum_collider@$0A@$0A@@@QEAAXK@Z	; frustum_collider<0,0>::_prim
PUBLIC	?_init@?$frustum_collider@$00$00@@QEAAXPEAVCOLLIDER@CDB@@PEAU?$_vector3@M@@PEAVTRI@3@PEBVCFrustum@@@Z ; frustum_collider<1,1>::_init
PUBLIC	?_stab@?$frustum_collider@$00$00@@QEAAXPEBVAABBNoLeafNode@Opcode@@I@Z ; frustum_collider<1,1>::_stab
PUBLIC	?_init@?$frustum_collider@$00$0A@@@QEAAXPEAVCOLLIDER@CDB@@PEAU?$_vector3@M@@PEAVTRI@3@PEBVCFrustum@@@Z ; frustum_collider<1,0>::_init
PUBLIC	?_stab@?$frustum_collider@$00$0A@@@QEAAXPEBVAABBNoLeafNode@Opcode@@I@Z ; frustum_collider<1,0>::_stab
PUBLIC	?_init@?$frustum_collider@$0A@$00@@QEAAXPEAVCOLLIDER@CDB@@PEAU?$_vector3@M@@PEAVTRI@3@PEBVCFrustum@@@Z ; frustum_collider<0,1>::_init
PUBLIC	?_stab@?$frustum_collider@$0A@$00@@QEAAXPEBVAABBNoLeafNode@Opcode@@I@Z ; frustum_collider<0,1>::_stab
PUBLIC	?_init@?$frustum_collider@$0A@$0A@@@QEAAXPEAVCOLLIDER@CDB@@PEAU?$_vector3@M@@PEAVTRI@3@PEBVCFrustum@@@Z ; frustum_collider<0,0>::_init
PUBLIC	?_stab@?$frustum_collider@$0A@$0A@@@QEAAXPEBVAABBNoLeafNode@Opcode@@I@Z ; frustum_collider<0,0>::_stab
PUBLIC	?frustum_query@COLLIDER@CDB@@QEAAXPEBVMODEL@2@AEBVCFrustum@@@Z ; CDB::COLLIDER::frustum_query
;	COMDAT pdata
pdata	SEGMENT
$pdata$?_box@?$frustum_collider@$00$00@@QEAA?AW4EFC_Visible@@AEAU?$_vector3@M@@0AEAI@Z DD imagerel $LN9@box
	DD	imagerel $LN9@box+164
	DD	imagerel $unwind$?_box@?$frustum_collider@$00$00@@QEAA?AW4EFC_Visible@@AEAU?$_vector3@M@@0AEAI@Z
pdata	ENDS
;	COMDAT pdata
pdata	SEGMENT
$pdata$?_prim@?$frustum_collider@$00$00@@QEAAXK@Z DD imagerel $LN31@prim
	DD	imagerel $LN31@prim+362
	DD	imagerel $unwind$?_prim@?$frustum_collider@$00$00@@QEAAXK@Z
pdata	ENDS
;	COMDAT pdata
pdata	SEGMENT
$pdata$?_box@?$frustum_collider@$00$0A@@@QEAA?AW4EFC_Visible@@AEAU?$_vector3@M@@0AEAI@Z DD imagerel $LN9@box
	DD	imagerel $LN9@box+164
	DD	imagerel $unwind$?_box@?$frustum_collider@$00$0A@@@QEAA?AW4EFC_Visible@@AEAU?$_vector3@M@@0AEAI@Z
pdata	ENDS
;	COMDAT pdata
pdata	SEGMENT
$pdata$?_prim@?$frustum_collider@$00$0A@@@QEAAXK@Z DD imagerel $LN31@prim
	DD	imagerel $LN31@prim+362
	DD	imagerel $unwind$?_prim@?$frustum_collider@$00$0A@@@QEAAXK@Z
pdata	ENDS
;	COMDAT pdata
pdata	SEGMENT
$pdata$?_box@?$frustum_collider@$0A@$00@@QEAA?AW4EFC_Visible@@AEAU?$_vector3@M@@0AEAI@Z DD imagerel $LN9@box
	DD	imagerel $LN9@box+164
	DD	imagerel $unwind$?_box@?$frustum_collider@$0A@$00@@QEAA?AW4EFC_Visible@@AEAU?$_vector3@M@@0AEAI@Z
pdata	ENDS
;	COMDAT pdata
pdata	SEGMENT
$pdata$?_prim@?$frustum_collider@$0A@$00@@QEAAXK@Z DD imagerel $LN31@prim
	DD	imagerel $LN31@prim+164
	DD	imagerel $unwind$?_prim@?$frustum_collider@$0A@$00@@QEAAXK@Z
pdata	ENDS
;	COMDAT pdata
pdata	SEGMENT
$pdata$?_box@?$frustum_collider@$0A@$0A@@@QEAA?AW4EFC_Visible@@AEAU?$_vector3@M@@0AEAI@Z DD imagerel $LN9@box
	DD	imagerel $LN9@box+164
	DD	imagerel $unwind$?_box@?$frustum_collider@$0A@$0A@@@QEAA?AW4EFC_Visible@@AEAU?$_vector3@M@@0AEAI@Z
pdata	ENDS
;	COMDAT pdata
pdata	SEGMENT
$pdata$?_prim@?$frustum_collider@$0A@$0A@@@QEAAXK@Z DD imagerel $LN31@prim
	DD	imagerel $LN31@prim+164
	DD	imagerel $unwind$?_prim@?$frustum_collider@$0A@$0A@@@QEAAXK@Z
pdata	ENDS
;	COMDAT pdata
pdata	SEGMENT
$pdata$?_stab@?$frustum_collider@$00$00@@QEAAXPEBVAABBNoLeafNode@Opcode@@I@Z DD imagerel $LN55@stab
	DD	imagerel $LN55@stab+154
	DD	imagerel $unwind$?_stab@?$frustum_collider@$00$00@@QEAAXPEBVAABBNoLeafNode@Opcode@@I@Z
pdata	ENDS
;	COMDAT pdata
pdata	SEGMENT
$pdata$0$?_stab@?$frustum_collider@$00$00@@QEAAXPEBVAABBNoLeafNode@Opcode@@I@Z DD imagerel $LN55@stab+154
	DD	imagerel $LN55@stab+395
	DD	imagerel $chain$0$?_stab@?$frustum_collider@$00$00@@QEAAXPEBVAABBNoLeafNode@Opcode@@I@Z
pdata	ENDS
;	COMDAT pdata
pdata	SEGMENT
$pdata$1$?_stab@?$frustum_collider@$00$00@@QEAAXPEBVAABBNoLeafNode@Opcode@@I@Z DD imagerel $LN55@stab+395
	DD	imagerel $LN55@stab+420
	DD	imagerel $chain$1$?_stab@?$frustum_collider@$00$00@@QEAAXPEBVAABBNoLeafNode@Opcode@@I@Z
pdata	ENDS
;	COMDAT pdata
pdata	SEGMENT
$pdata$?_stab@?$frustum_collider@$00$0A@@@QEAAXPEBVAABBNoLeafNode@Opcode@@I@Z DD imagerel $LN37@stab
	DD	imagerel $LN37@stab+367
	DD	imagerel $unwind$?_stab@?$frustum_collider@$00$0A@@@QEAAXPEBVAABBNoLeafNode@Opcode@@I@Z
pdata	ENDS
;	COMDAT pdata
pdata	SEGMENT
$pdata$?_stab@?$frustum_collider@$0A@$00@@QEAAXPEBVAABBNoLeafNode@Opcode@@I@Z DD imagerel $LN55@stab
	DD	imagerel $LN55@stab+154
	DD	imagerel $unwind$?_stab@?$frustum_collider@$0A@$00@@QEAAXPEBVAABBNoLeafNode@Opcode@@I@Z
pdata	ENDS
;	COMDAT pdata
pdata	SEGMENT
$pdata$0$?_stab@?$frustum_collider@$0A@$00@@QEAAXPEBVAABBNoLeafNode@Opcode@@I@Z DD imagerel $LN55@stab+154
	DD	imagerel $LN55@stab+395
	DD	imagerel $chain$0$?_stab@?$frustum_collider@$0A@$00@@QEAAXPEBVAABBNoLeafNode@Opcode@@I@Z
pdata	ENDS
;	COMDAT pdata
pdata	SEGMENT
$pdata$1$?_stab@?$frustum_collider@$0A@$00@@QEAAXPEBVAABBNoLeafNode@Opcode@@I@Z DD imagerel $LN55@stab+395
	DD	imagerel $LN55@stab+420
	DD	imagerel $chain$1$?_stab@?$frustum_collider@$0A@$00@@QEAAXPEBVAABBNoLeafNode@Opcode@@I@Z
pdata	ENDS
;	COMDAT pdata
pdata	SEGMENT
$pdata$?_stab@?$frustum_collider@$0A@$0A@@@QEAAXPEBVAABBNoLeafNode@Opcode@@I@Z DD imagerel $LN37@stab
	DD	imagerel $LN37@stab+367
	DD	imagerel $unwind$?_stab@?$frustum_collider@$0A@$0A@@@QEAAXPEBVAABBNoLeafNode@Opcode@@I@Z
pdata	ENDS
;	COMDAT pdata
pdata	SEGMENT
$pdata$?frustum_query@COLLIDER@CDB@@QEAAXPEBVMODEL@2@AEBVCFrustum@@@Z DD imagerel $LN91@frustum_qu
	DD	imagerel $LN91@frustum_qu+21
	DD	imagerel $unwind$?frustum_query@COLLIDER@CDB@@QEAAXPEBVMODEL@2@AEBVCFrustum@@@Z
pdata	ENDS
;	COMDAT pdata
pdata	SEGMENT
$pdata$0$?frustum_query@COLLIDER@CDB@@QEAAXPEBVMODEL@2@AEBVCFrustum@@@Z DD imagerel $LN91@frustum_qu+21
	DD	imagerel $LN91@frustum_qu+35
	DD	imagerel $chain$0$?frustum_query@COLLIDER@CDB@@QEAAXPEBVMODEL@2@AEBVCFrustum@@@Z
pdata	ENDS
;	COMDAT pdata
pdata	SEGMENT
$pdata$1$?frustum_query@COLLIDER@CDB@@QEAAXPEBVMODEL@2@AEBVCFrustum@@@Z DD imagerel $LN91@frustum_qu+35
	DD	imagerel $LN91@frustum_qu+68
	DD	imagerel $chain$1$?frustum_query@COLLIDER@CDB@@QEAAXPEBVMODEL@2@AEBVCFrustum@@@Z
pdata	ENDS
;	COMDAT pdata
pdata	SEGMENT
$pdata$2$?frustum_query@COLLIDER@CDB@@QEAAXPEBVMODEL@2@AEBVCFrustum@@@Z DD imagerel $LN91@frustum_qu+68
	DD	imagerel $LN91@frustum_qu+136
	DD	imagerel $chain$2$?frustum_query@COLLIDER@CDB@@QEAAXPEBVMODEL@2@AEBVCFrustum@@@Z
pdata	ENDS
;	COMDAT pdata
pdata	SEGMENT
$pdata$3$?frustum_query@COLLIDER@CDB@@QEAAXPEBVMODEL@2@AEBVCFrustum@@@Z DD imagerel $LN91@frustum_qu+136
	DD	imagerel $LN91@frustum_qu+349
	DD	imagerel $chain$3$?frustum_query@COLLIDER@CDB@@QEAAXPEBVMODEL@2@AEBVCFrustum@@@Z
;	COMDAT xdata
xdata	SEGMENT
$chain$3$?frustum_query@COLLIDER@CDB@@QEAAXPEBVMODEL@2@AEBVCFrustum@@@Z DD 021H
	DD	imagerel $LN91@frustum_qu
	DD	imagerel $LN91@frustum_qu+21
	DD	imagerel $unwind$?frustum_query@COLLIDER@CDB@@QEAAXPEBVMODEL@2@AEBVCFrustum@@@Z
xdata	ENDS
;	COMDAT xdata
xdata	SEGMENT
$chain$2$?frustum_query@COLLIDER@CDB@@QEAAXPEBVMODEL@2@AEBVCFrustum@@@Z DD 021H
	DD	imagerel $LN91@frustum_qu+21
	DD	imagerel $LN91@frustum_qu+35
	DD	imagerel $chain$0$?frustum_query@COLLIDER@CDB@@QEAAXPEBVMODEL@2@AEBVCFrustum@@@Z
xdata	ENDS
;	COMDAT xdata
xdata	SEGMENT
$chain$1$?frustum_query@COLLIDER@CDB@@QEAAXPEBVMODEL@2@AEBVCFrustum@@@Z DD 020421H
	DD	0163404H
	DD	imagerel $LN91@frustum_qu+21
	DD	imagerel $LN91@frustum_qu+35
	DD	imagerel $chain$0$?frustum_query@COLLIDER@CDB@@QEAAXPEBVMODEL@2@AEBVCFrustum@@@Z
xdata	ENDS
;	COMDAT xdata
xdata	SEGMENT
$chain$0$?frustum_query@COLLIDER@CDB@@QEAAXPEBVMODEL@2@AEBVCFrustum@@@Z DD 020421H
	DD	017e404H
	DD	imagerel $LN91@frustum_qu
	DD	imagerel $LN91@frustum_qu+21
	DD	imagerel $unwind$?frustum_query@COLLIDER@CDB@@QEAAXPEBVMODEL@2@AEBVCFrustum@@@Z
xdata	ENDS
;	COMDAT xdata
xdata	SEGMENT
$unwind$?frustum_query@COLLIDER@CDB@@QEAAXPEBVMODEL@2@AEBVCFrustum@@@Z DD 050f01H
	DD	018640fH
	DD	014010fH
	DD	07008H
xdata	ENDS
;	COMDAT xdata
xdata	SEGMENT
$unwind$?_stab@?$frustum_collider@$0A@$0A@@@QEAAXPEBVAABBNoLeafNode@Opcode@@I@Z DD 061e19H
	DD	05680fH
	DD	011340aH
	DD	07006b20aH
	DD	imagerel __GSHandlerCheck
	DD	040H
xdata	ENDS
;	COMDAT xdata
xdata	SEGMENT
$chain$1$?_stab@?$frustum_collider@$0A@$00@@QEAAXPEBVAABBNoLeafNode@Opcode@@I@Z DD 021H
	DD	imagerel $LN55@stab
	DD	imagerel $LN55@stab+154
	DD	imagerel $unwind$?_stab@?$frustum_collider@$0A@$00@@QEAAXPEBVAABBNoLeafNode@Opcode@@I@Z
xdata	ENDS
;	COMDAT xdata
xdata	SEGMENT
$chain$0$?_stab@?$frustum_collider@$0A@$00@@QEAAXPEBVAABBNoLeafNode@Opcode@@I@Z DD 020521H
	DD	0c6405H
	DD	imagerel $LN55@stab
	DD	imagerel $LN55@stab+154
	DD	imagerel $unwind$?_stab@?$frustum_collider@$0A@$00@@QEAAXPEBVAABBNoLeafNode@Opcode@@I@Z
xdata	ENDS
;	COMDAT xdata
xdata	SEGMENT
$unwind$?_stab@?$frustum_collider@$0A@$00@@QEAAXPEBVAABBNoLeafNode@Opcode@@I@Z DD 051b19H
	DD	05680cH
	DD	07003c207H
	DD	03002H
	DD	imagerel __GSHandlerCheck
	DD	040H
xdata	ENDS
;	COMDAT xdata
xdata	SEGMENT
$unwind$?_stab@?$frustum_collider@$00$0A@@@QEAAXPEBVAABBNoLeafNode@Opcode@@I@Z DD 061e19H
	DD	05680fH
	DD	011340aH
	DD	07006b20aH
	DD	imagerel __GSHandlerCheck
	DD	040H
xdata	ENDS
;	COMDAT xdata
xdata	SEGMENT
$chain$1$?_stab@?$frustum_collider@$00$00@@QEAAXPEBVAABBNoLeafNode@Opcode@@I@Z DD 021H
	DD	imagerel $LN55@stab
	DD	imagerel $LN55@stab+154
	DD	imagerel $unwind$?_stab@?$frustum_collider@$00$00@@QEAAXPEBVAABBNoLeafNode@Opcode@@I@Z
xdata	ENDS
;	COMDAT xdata
xdata	SEGMENT
$chain$0$?_stab@?$frustum_collider@$00$00@@QEAAXPEBVAABBNoLeafNode@Opcode@@I@Z DD 020521H
	DD	0c6405H
	DD	imagerel $LN55@stab
	DD	imagerel $LN55@stab+154
	DD	imagerel $unwind$?_stab@?$frustum_collider@$00$00@@QEAAXPEBVAABBNoLeafNode@Opcode@@I@Z
xdata	ENDS
;	COMDAT xdata
xdata	SEGMENT
$unwind$?_stab@?$frustum_collider@$00$00@@QEAAXPEBVAABBNoLeafNode@Opcode@@I@Z DD 051b19H
	DD	05680cH
	DD	07003c207H
	DD	03002H
	DD	imagerel __GSHandlerCheck
	DD	040H
xdata	ENDS
;	COMDAT xdata
xdata	SEGMENT
$unwind$?_prim@?$frustum_collider@$0A@$0A@@@QEAAXK@Z DD 040a01H
	DD	07340aH
	DD	07006320aH
xdata	ENDS
;	COMDAT xdata
xdata	SEGMENT
$unwind$?_box@?$frustum_collider@$0A@$0A@@@QEAA?AW4EFC_Visible@@AEAU?$_vector3@M@@0AEAI@Z DD 031819H
	DD	046809H
	DD	0a204H
	DD	imagerel __GSHandlerCheck
	DD	038H
xdata	ENDS
;	COMDAT xdata
xdata	SEGMENT
$unwind$?_prim@?$frustum_collider@$0A@$00@@QEAAXK@Z DD 040a01H
	DD	07340aH
	DD	07006320aH
xdata	ENDS
;	COMDAT xdata
xdata	SEGMENT
$unwind$?_box@?$frustum_collider@$0A@$00@@QEAA?AW4EFC_Visible@@AEAU?$_vector3@M@@0AEAI@Z DD 031819H
	DD	046809H
	DD	0a204H
	DD	imagerel __GSHandlerCheck
	DD	038H
xdata	ENDS
;	COMDAT xdata
xdata	SEGMENT
$unwind$?_prim@?$frustum_collider@$00$0A@@@QEAAXK@Z DD 072419H
	DD	09e6412H
	DD	09d3412H
	DD	09a0112H
	DD	0700bH
	DD	imagerel __GSHandlerCheck
	DD	04c0H
xdata	ENDS
;	COMDAT xdata
xdata	SEGMENT
$unwind$?_box@?$frustum_collider@$00$0A@@@QEAA?AW4EFC_Visible@@AEAU?$_vector3@M@@0AEAI@Z DD 031819H
	DD	046809H
	DD	0a204H
	DD	imagerel __GSHandlerCheck
	DD	038H
xdata	ENDS
;	COMDAT xdata
xdata	SEGMENT
$unwind$?_prim@?$frustum_collider@$00$00@@QEAAXK@Z DD 072419H
	DD	09e6412H
	DD	09d3412H
	DD	09a0112H
	DD	0700bH
	DD	imagerel __GSHandlerCheck
	DD	04c0H
xdata	ENDS
;	COMDAT xdata
xdata	SEGMENT
$unwind$?_box@?$frustum_collider@$00$00@@QEAA?AW4EFC_Visible@@AEAU?$_vector3@M@@0AEAI@Z DD 031819H
	DD	046809H
	DD	0a204H
	DD	imagerel __GSHandlerCheck
	DD	038H
END
